Certificate:
    Data:
        Version: 3 (0x2)
        Serial Number: 7 (0x7)
    Signature Algorithm: sha1WithRSAEncryption
        Issuer: C=FR, ST=Ile-de-France, L=Paris, O=INTECH, CN=root_cbi/emailAddress=root_cbi@canbreakit.fr
        Validity
            Not Before: Jun 14 07:44:24 2017 GMT
            Not After : Jun 14 07:44:24 2018 GMT
        Subject: C=FR, ST=Ile-de-France, L=Paris, O=INTECH, CN=toutou
        Subject Public Key Info:
            Public Key Algorithm: rsaEncryption
                Public-Key: (2048 bit)
                Modulus:
                    00:a8:f2:b6:11:17:da:60:af:d2:ee:6a:5b:1d:73:
                    9d:9e:74:77:67:55:52:51:61:d1:93:af:51:dc:37:
                    79:77:b6:4c:bd:88:1a:3c:4c:7b:fd:2c:fb:1a:39:
                    16:ba:dd:1e:87:b3:2c:5e:9e:ae:cc:3d:3d:0d:ed:
                    3c:6a:50:e6:0e:10:8c:73:4c:1d:17:bf:17:7c:e1:
                    5c:d1:bd:21:7e:21:1e:ab:8a:b6:03:23:bb:3a:bb:
                    e8:05:cc:d7:4f:30:3b:d0:5a:58:58:6c:0c:9c:68:
                    0d:1b:4e:34:0e:24:cc:16:ef:b9:67:a5:30:66:0c:
                    8a:7b:ee:b4:34:6b:7f:25:b7:2d:f7:52:a0:b4:7a:
                    74:b0:41:7c:8e:51:73:ab:26:16:e0:eb:8a:24:e4:
                    6a:82:6d:73:b2:97:51:75:dc:3e:5e:5e:1f:7f:3c:
                    3c:dc:5a:10:27:da:cc:81:d8:e9:59:dd:1d:73:4a:
                    74:50:de:d8:d9:ff:ce:97:b0:10:85:4b:1b:6b:b5:
                    46:9d:c7:23:ff:dd:93:5e:15:c2:ff:ac:18:f1:af:
                    0f:a7:4d:98:e2:57:40:d4:86:d2:13:d1:84:20:4a:
                    d8:c9:80:67:0f:a5:3f:0e:3a:07:4e:59:2b:f1:62:
                    26:fd:ac:7b:c3:7c:fc:2a:bd:0b:e3:54:5b:b0:6f:
                    e0:01
                Exponent: 65537 (0x10001)
        X509v3 extensions:
            Netscape Comment: 
                CA Racine
            X509v3 Subject Key Identifier: 
                68:B0:F0:4E:10:87:71:FB:B7:30:D2:0F:A4:F2:51:4C:22:A1:46:99
            X509v3 Authority Key Identifier: 
                keyid:8A:81:3D:30:22:93:E3:61:A1:44:BC:19:20:2E:F8:00:29:B5:11:3B
                DirName:/C=FR/ST=Ile-de-France/L=Paris/O=INTECH/CN=root_cbi/emailAddress=root_cbi@canbreakit.fr
                serial:DF:97:F0:62:66:C6:31:5E

            X509v3 Basic Constraints: critical
                CA:TRUE, pathlen:1
            X509v3 Key Usage: 
                Certificate Sign, CRL Sign
    Signature Algorithm: sha1WithRSAEncryption
         74:d3:3b:44:f9:78:62:7b:7f:73:1d:e8:cc:54:61:c1:62:9a:
         d2:69:f7:ae:99:4b:2a:0d:c5:e9:ea:42:f5:8c:4a:dd:6f:e8:
         b4:b3:c4:e7:e7:22:3d:f0:9d:9f:f5:c2:ed:fe:5b:80:8e:08:
         f2:6e:44:37:56:8b:f8:3c:5a:3a:49:eb:58:42:79:30:f4:f6:
         bb:e8:4d:4b:9d:2f:03:02:72:82:b7:e4:27:11:75:73:0e:2a:
         26:1a:4f:ac:33:78:b9:88:f6:e3:44:44:f0:fd:f4:ee:d0:8f:
         1b:f7:e0:ed:09:f1:50:f1:1b:36:92:d2:ae:dd:b3:90:89:02:
         c2:a1:19:2b:78:fa:08:4e:a7:64:cd:0f:f5:80:72:87:d1:9a:
         44:ba:88:ef:13:d6:54:fc:d7:14:8a:b2:95:5b:df:ad:6c:8c:
         42:27:8a:2c:77:e2:14:b5:78:a8:6e:f4:aa:b0:58:80:35:92:
         b4:db:9a:eb:5d:7a:a2:48:c6:fe:45:b7:d8:39:9e:c8:37:de:
         ea:11:1f:5a:c1:1b:eb:86:2b:f3:5a:2a:23:39:81:5d:b2:83:
         a3:97:c0:f7:64:2f:c7:58:ef:5f:be:d2:a3:3a:2d:3a:b9:ad:
         82:07:c8:4e:3c:21:96:bb:5b:e6:87:af:f6:91:5f:6d:3e:03:
         96:84:40:28
-----BEGIN CERTIFICATE-----
MIIEazCCA1OgAwIBAgIBBzANBgkqhkiG9w0BAQUFADCBgDELMAkGA1UEBhMCRlIx
FjAUBgNVBAgMDUlsZS1kZS1GcmFuY2UxDjAMBgNVBAcMBVBhcmlzMQ8wDQYDVQQK
DAZJTlRFQ0gxETAPBgNVBAMMCHJvb3RfY2JpMSUwIwYJKoZIhvcNAQkBFhZyb290
X2NiaUBjYW5icmVha2l0LmZyMB4XDTE3MDYxNDA3NDQyNFoXDTE4MDYxNDA3NDQy
NFowVzELMAkGA1UEBhMCRlIxFjAUBgNVBAgMDUlsZS1kZS1GcmFuY2UxDjAMBgNV
BAcMBVBhcmlzMQ8wDQYDVQQKDAZJTlRFQ0gxDzANBgNVBAMMBnRvdXRvdTCCASIw
DQYJKoZIhvcNAQEBBQADggEPADCCAQoCggEBAKjythEX2mCv0u5qWx1znZ50d2dV
UlFh0ZOvUdw3eXe2TL2IGjxMe/0s+xo5FrrdHoezLF6ersw9PQ3tPGpQ5g4QjHNM
HRe/F3zhXNG9IX4hHquKtgMjuzq76AXM108wO9BaWFhsDJxoDRtONA4kzBbvuWel
MGYMinvutDRrfyW3LfdSoLR6dLBBfI5Rc6smFuDriiTkaoJtc7KXUXXcPl5eH388
PNxaECfazIHY6VndHXNKdFDe2Nn/zpewEIVLG2u1Rp3HI//dk14Vwv+sGPGvD6dN
mOJXQNSG0hPRhCBK2MmAZw+lPw46B05ZK/FiJv2se8N8/Cq9C+NUW7Bv4AECAwEA
AaOCARYwggESMBgGCWCGSAGG+EIBDQQLFglDQSBSYWNpbmUwHQYDVR0OBBYEFGiw
8E4Qh3H7tzDSD6TyUUwioUaZMIG1BgNVHSMEga0wgaqAFIqBPTAik+NhoUS8GSAu
+AAptRE7oYGGpIGDMIGAMQswCQYDVQQGEwJGUjEWMBQGA1UECAwNSWxlLWRlLUZy
YW5jZTEOMAwGA1UEBwwFUGFyaXMxDzANBgNVBAoMBklOVEVDSDERMA8GA1UEAwwI
cm9vdF9jYmkxJTAjBgkqhkiG9w0BCQEWFnJvb3RfY2JpQGNhbmJyZWFraXQuZnKC
CQDfl/BiZsYxXjASBgNVHRMBAf8ECDAGAQH/AgEBMAsGA1UdDwQEAwIBBjANBgkq
hkiG9w0BAQUFAAOCAQEAdNM7RPl4Ynt/cx3ozFRhwWKa0mn3rplLKg3F6epC9YxK
3W/otLPE5+ciPfCdn/XC7f5bgI4I8m5EN1aL+DxaOknrWEJ5MPT2u+hNS50vAwJy
grfkJxF1cw4qJhpPrDN4uYj240RE8P307tCPG/fg7QnxUPEbNpLSrt2zkIkCwqEZ
K3j6CE6nZM0P9YByh9GaRLqI7xPWVPzXFIqylVvfrWyMQieKLHfiFLV4qG70qrBY
gDWStNua6116okjG/kW32DmeyDfe6hEfWsEb64Yr81oqIzmBXbKDo5fA92Qvx1jv
X77SozotOrmtggfITjwhlrtb5oev9pFfbT4DloRAKA==
-----END CERTIFICATE-----
