Certificate:
    Data:
        Version: 3 (0x2)
        Serial Number: 2 (0x2)
    Signature Algorithm: sha1WithRSAEncryption
        Issuer: C=FR, ST=Ile-de-France, L=Paris, O=INTECH, CN=root_cbi/emailAddress=root_cbi@canbreakit.fr
        Validity
            Not Before: Jun 14 04:53:40 2017 GMT
            Not After : Jun 14 04:53:40 2018 GMT
        Subject: C=FR, ST=Ile-de-France, L=Paris, O=INTECH, CN=toto/emailAddress=toto@canbreakit.fr
        Subject Public Key Info:
            Public Key Algorithm: rsaEncryption
                Public-Key: (2048 bit)
                Modulus:
                    00:e6:3a:ae:6d:8e:24:0a:a7:ce:37:a9:7b:03:fb:
                    62:bc:e7:87:26:fd:57:87:26:78:ec:0c:8b:b5:0d:
                    31:26:84:ab:78:f4:74:77:8d:de:44:d9:6e:3b:23:
                    e1:9d:c1:cf:ef:a4:7a:c7:24:5b:36:fd:5e:04:c7:
                    47:9a:9e:43:35:c2:c0:80:9f:ee:ab:3b:0e:a0:dd:
                    05:23:12:0c:3f:8f:90:77:c4:d6:ed:46:8b:6d:23:
                    dd:15:6d:63:47:a2:46:3b:8c:28:77:a8:b9:29:5a:
                    8e:59:9c:3a:9f:a4:aa:46:42:bc:c6:25:ca:1e:6f:
                    8e:38:b8:87:61:67:73:e5:ad:fb:4f:14:e6:e3:72:
                    f6:1e:8a:3c:70:23:d3:7c:05:d3:a4:62:29:c7:05:
                    bc:a7:e6:4e:aa:c0:14:7d:2b:4a:36:6e:d6:7c:c8:
                    00:ca:c9:5b:79:6f:29:39:94:ee:32:ed:d1:bc:ea:
                    f0:ef:6c:39:25:f4:d3:18:9f:17:97:00:a5:39:5d:
                    f8:4e:90:b6:60:e0:4c:9d:10:bf:49:28:f8:fd:f6:
                    2e:bf:37:76:95:02:22:d7:8f:85:42:a0:bd:c4:d1:
                    ac:8d:ef:48:21:7b:b4:b8:88:eb:64:24:24:32:b8:
                    cd:5c:ae:81:4d:c2:02:bd:5b:0f:a0:60:e9:a0:86:
                    b4:b9
                Exponent: 65537 (0x10001)
        X509v3 extensions:
            Netscape Comment: 
                CA Racine
            X509v3 Subject Key Identifier: 
                37:EA:C0:02:DD:3E:AF:33:C0:07:42:4D:FE:4A:3D:F2:13:C1:9F:D4
            X509v3 Authority Key Identifier: 
                keyid:8A:81:3D:30:22:93:E3:61:A1:44:BC:19:20:2E:F8:00:29:B5:11:3B
                DirName:/C=FR/ST=Ile-de-France/L=Paris/O=INTECH/CN=root_cbi/emailAddress=root_cbi@canbreakit.fr
                serial:DF:97:F0:62:66:C6:31:5E

            X509v3 Basic Constraints: critical
                CA:TRUE, pathlen:1
            X509v3 Key Usage: 
                Certificate Sign, CRL Sign
    Signature Algorithm: sha1WithRSAEncryption
         51:2c:ac:c2:71:2b:8a:c2:6a:6c:fb:67:11:84:b6:38:6c:f1:
         14:8e:ac:a1:52:68:66:d8:47:4a:26:04:e0:a2:70:e3:c0:6c:
         72:e1:07:9c:18:2d:da:bf:71:a8:59:18:2c:78:89:35:b1:22:
         a9:89:38:f0:aa:be:47:ee:fe:75:7c:0d:61:5c:de:e5:ea:de:
         b9:a6:4a:6d:02:6c:1e:e0:58:9b:c5:91:e7:33:c6:bd:ce:7e:
         67:bf:6a:3a:29:a9:71:8d:5c:d8:d0:83:7b:fb:8d:6a:d3:7f:
         d2:ad:62:25:78:0e:37:69:4a:7d:49:85:11:8d:28:21:19:a1:
         14:f5:f3:c2:bc:2c:7e:55:14:ac:b7:64:7c:8a:61:72:c0:4d:
         28:05:c7:9c:9d:d0:bb:16:32:01:6f:d1:eb:08:5f:5a:07:9c:
         7f:1d:5f:6f:d1:e1:ba:7c:b2:14:b1:8f:06:21:c9:0f:42:f5:
         35:ab:c3:80:0e:80:04:90:32:71:f4:26:b7:49:80:96:35:e7:
         3e:99:2a:10:87:ee:71:67:c2:c2:5b:2c:1b:a1:a8:4a:50:73:
         78:df:98:03:92:c6:8f:8d:a4:b3:18:ec:59:fb:cb:e3:e2:7b:
         27:98:0b:ff:b4:2c:e0:c9:b6:3a:25:c4:75:14:f6:f0:a0:7f:
         01:4d:5e:97
-----BEGIN CERTIFICATE-----
MIIEjDCCA3SgAwIBAgIBAjANBgkqhkiG9w0BAQUFADCBgDELMAkGA1UEBhMCRlIx
FjAUBgNVBAgMDUlsZS1kZS1GcmFuY2UxDjAMBgNVBAcMBVBhcmlzMQ8wDQYDVQQK
DAZJTlRFQ0gxETAPBgNVBAMMCHJvb3RfY2JpMSUwIwYJKoZIhvcNAQkBFhZyb290
X2NiaUBjYW5icmVha2l0LmZyMB4XDTE3MDYxNDA0NTM0MFoXDTE4MDYxNDA0NTM0
MFoweDELMAkGA1UEBhMCRlIxFjAUBgNVBAgMDUlsZS1kZS1GcmFuY2UxDjAMBgNV
BAcMBVBhcmlzMQ8wDQYDVQQKDAZJTlRFQ0gxDTALBgNVBAMMBHRvdG8xITAfBgkq
hkiG9w0BCQEWEnRvdG9AY2FuYnJlYWtpdC5mcjCCASIwDQYJKoZIhvcNAQEBBQAD
ggEPADCCAQoCggEBAOY6rm2OJAqnzjepewP7Yrznhyb9V4cmeOwMi7UNMSaEq3j0
dHeN3kTZbjsj4Z3Bz++kesckWzb9XgTHR5qeQzXCwICf7qs7DqDdBSMSDD+PkHfE
1u1Gi20j3RVtY0eiRjuMKHeouSlajlmcOp+kqkZCvMYlyh5vjji4h2Fnc+Wt+08U
5uNy9h6KPHAj03wF06RiKccFvKfmTqrAFH0rSjZu1nzIAMrJW3lvKTmU7jLt0bzq
8O9sOSX00xifF5cApTld+E6QtmDgTJ0Qv0ko+P32Lr83dpUCItePhUKgvcTRrI3v
SCF7tLiI62QkJDK4zVyugU3CAr1bD6Bg6aCGtLkCAwEAAaOCARYwggESMBgGCWCG
SAGG+EIBDQQLFglDQSBSYWNpbmUwHQYDVR0OBBYEFDfqwALdPq8zwAdCTf5KPfIT
wZ/UMIG1BgNVHSMEga0wgaqAFIqBPTAik+NhoUS8GSAu+AAptRE7oYGGpIGDMIGA
MQswCQYDVQQGEwJGUjEWMBQGA1UECAwNSWxlLWRlLUZyYW5jZTEOMAwGA1UEBwwF
UGFyaXMxDzANBgNVBAoMBklOVEVDSDERMA8GA1UEAwwIcm9vdF9jYmkxJTAjBgkq
hkiG9w0BCQEWFnJvb3RfY2JpQGNhbmJyZWFraXQuZnKCCQDfl/BiZsYxXjASBgNV
HRMBAf8ECDAGAQH/AgEBMAsGA1UdDwQEAwIBBjANBgkqhkiG9w0BAQUFAAOCAQEA
USyswnErisJqbPtnEYS2OGzxFI6soVJoZthHSiYE4KJw48BscuEHnBgt2r9xqFkY
LHiJNbEiqYk48Kq+R+7+dXwNYVze5ereuaZKbQJsHuBYm8WR5zPGvc5+Z79qOimp
cY1c2NCDe/uNatN/0q1iJXgON2lKfUmFEY0oIRmhFPXzwrwsflUUrLdkfIphcsBN
KAXHnJ3QuxYyAW/R6whfWgecfx1fb9HhunyyFLGPBiHJD0L1NavDgA6ABJAycfQm
t0mAljXnPpkqEIfucWfCwlssG6GoSlBzeN+YA5LGj42ksxjsWfvL4+J7J5gL/7Qs
4Mm2OiXEdRT28KB/AU1elw==
-----END CERTIFICATE-----
