Certificate:
    Data:
        Version: 3 (0x2)
        Serial Number: 4 (0x4)
    Signature Algorithm: sha1WithRSAEncryption
        Issuer: C=FR, ST=Ile-de-France, L=Paris, O=INTECH, CN=root_cbi/emailAddress=root_cbi@canbreakit.fr
        Validity
            Not Before: Jun 14 07:18:56 2017 GMT
            Not After : Jun 14 07:18:56 2018 GMT
        Subject: C=FR, ST=Ile-de-France, L=Paris, O=INTECH, CN=titi
        Subject Public Key Info:
            Public Key Algorithm: rsaEncryption
                Public-Key: (2048 bit)
                Modulus:
                    00:e5:55:05:d3:49:86:07:23:ed:5f:44:6d:aa:c8:
                    d8:5e:ad:18:6d:68:b9:05:9f:94:12:ef:ce:9e:26:
                    a0:65:f8:56:fb:45:2f:0d:38:e9:49:d8:47:26:2c:
                    b3:4f:f7:04:b0:60:c6:9c:28:5e:d0:5a:84:33:c1:
                    67:8a:59:44:52:31:97:6c:e7:e4:9e:ad:0c:42:38:
                    63:a7:18:fd:7d:c0:48:7b:93:44:11:1f:67:ec:fd:
                    be:2d:db:a7:aa:78:05:2b:51:12:e4:ca:de:c8:c9:
                    05:34:cc:94:ab:1a:72:7a:54:46:33:2e:96:00:38:
                    3e:5a:d1:56:63:04:1a:20:d9:29:af:1a:be:6e:4f:
                    e7:22:e3:c1:51:87:3f:33:ce:ce:e5:a4:46:e0:cf:
                    e6:dd:4f:ea:6e:82:12:6f:b5:16:75:a1:51:85:10:
                    77:9b:d6:2b:cc:f2:37:5b:a5:e1:c6:f8:66:72:c7:
                    64:6b:3c:c1:2d:33:a3:b7:d9:88:a4:99:2f:52:47:
                    6d:a6:c8:78:55:45:7c:64:f2:d9:d2:03:9f:f7:f4:
                    30:2a:92:02:18:c4:76:54:20:a0:54:6e:5d:cf:59:
                    67:6e:88:09:34:0c:35:48:6a:61:2c:db:5e:9d:f7:
                    81:aa:79:4e:2f:fa:90:7a:25:45:96:7b:20:ff:48:
                    09:b7
                Exponent: 65537 (0x10001)
        X509v3 extensions:
            Netscape Comment: 
                CA Racine
            X509v3 Subject Key Identifier: 
                A6:50:8E:02:B4:F1:67:75:F8:2F:71:53:03:27:A7:43:1F:B2:2D:73
            X509v3 Authority Key Identifier: 
                keyid:8A:81:3D:30:22:93:E3:61:A1:44:BC:19:20:2E:F8:00:29:B5:11:3B
                DirName:/C=FR/ST=Ile-de-France/L=Paris/O=INTECH/CN=root_cbi/emailAddress=root_cbi@canbreakit.fr
                serial:DF:97:F0:62:66:C6:31:5E

            X509v3 Basic Constraints: critical
                CA:TRUE, pathlen:1
            X509v3 Key Usage: 
                Certificate Sign, CRL Sign
    Signature Algorithm: sha1WithRSAEncryption
         8f:4e:f7:dc:5f:0e:6f:2d:b3:cd:b5:90:d3:88:c7:8b:60:c6:
         cd:ae:df:6d:80:05:6e:76:a7:ec:21:90:c6:7f:e9:3b:28:b4:
         15:13:aa:23:54:ff:c3:12:7c:cf:48:d0:48:1a:8a:cc:cc:b1:
         73:ae:5f:5d:e4:1f:1e:80:4d:c8:28:f5:82:0f:f1:d0:40:a2:
         e5:da:36:c8:e1:d8:50:58:fd:4b:dd:cd:fc:4d:54:81:0e:16:
         36:2c:40:c9:78:46:c3:62:fc:ed:e8:da:32:a1:e6:5f:e5:e0:
         5e:fd:12:25:4f:a2:cb:f3:e5:62:32:45:30:c8:24:e7:66:10:
         f6:45:81:d3:58:b2:03:64:02:6c:fa:39:df:60:d5:1f:02:e7:
         0c:d0:47:20:a2:05:ca:48:4e:6a:c7:77:78:42:91:0c:a7:7c:
         cd:1a:a6:1b:95:77:7b:bb:95:26:eb:e1:f8:2c:06:8e:ea:63:
         29:b6:74:91:47:b8:c5:73:09:c9:fc:5c:04:80:52:ed:53:56:
         5f:fa:ee:e9:08:fd:8d:e7:44:62:e3:00:dd:e8:31:c3:3d:35:
         d9:0e:c2:fe:a1:55:72:57:9c:ee:15:f1:9e:b2:51:d4:27:54:
         12:ce:c5:ad:57:ba:59:66:a8:12:93:e0:26:3f:16:3d:59:a1:
         0b:f0:f1:74
-----BEGIN CERTIFICATE-----
MIIEaTCCA1GgAwIBAgIBBDANBgkqhkiG9w0BAQUFADCBgDELMAkGA1UEBhMCRlIx
FjAUBgNVBAgMDUlsZS1kZS1GcmFuY2UxDjAMBgNVBAcMBVBhcmlzMQ8wDQYDVQQK
DAZJTlRFQ0gxETAPBgNVBAMMCHJvb3RfY2JpMSUwIwYJKoZIhvcNAQkBFhZyb290
X2NiaUBjYW5icmVha2l0LmZyMB4XDTE3MDYxNDA3MTg1NloXDTE4MDYxNDA3MTg1
NlowVTELMAkGA1UEBhMCRlIxFjAUBgNVBAgMDUlsZS1kZS1GcmFuY2UxDjAMBgNV
BAcMBVBhcmlzMQ8wDQYDVQQKDAZJTlRFQ0gxDTALBgNVBAMMBHRpdGkwggEiMA0G
CSqGSIb3DQEBAQUAA4IBDwAwggEKAoIBAQDlVQXTSYYHI+1fRG2qyNherRhtaLkF
n5QS786eJqBl+Fb7RS8NOOlJ2EcmLLNP9wSwYMacKF7QWoQzwWeKWURSMZds5+Se
rQxCOGOnGP19wEh7k0QRH2fs/b4t26eqeAUrURLkyt7IyQU0zJSrGnJ6VEYzLpYA
OD5a0VZjBBog2SmvGr5uT+ci48FRhz8zzs7lpEbgz+bdT+pughJvtRZ1oVGFEHeb
1ivM8jdbpeHG+GZyx2RrPMEtM6O32YikmS9SR22myHhVRXxk8tnSA5/39DAqkgIY
xHZUIKBUbl3PWWduiAk0DDVIamEs216d94GqeU4v+pB6JUWWeyD/SAm3AgMBAAGj
ggEWMIIBEjAYBglghkgBhvhCAQ0ECxYJQ0EgUmFjaW5lMB0GA1UdDgQWBBSmUI4C
tPFndfgvcVMDJ6dDH7ItczCBtQYDVR0jBIGtMIGqgBSKgT0wIpPjYaFEvBkgLvgA
KbURO6GBhqSBgzCBgDELMAkGA1UEBhMCRlIxFjAUBgNVBAgMDUlsZS1kZS1GcmFu
Y2UxDjAMBgNVBAcMBVBhcmlzMQ8wDQYDVQQKDAZJTlRFQ0gxETAPBgNVBAMMCHJv
b3RfY2JpMSUwIwYJKoZIhvcNAQkBFhZyb290X2NiaUBjYW5icmVha2l0LmZyggkA
35fwYmbGMV4wEgYDVR0TAQH/BAgwBgEB/wIBATALBgNVHQ8EBAMCAQYwDQYJKoZI
hvcNAQEFBQADggEBAI9O99xfDm8ts821kNOIx4tgxs2u322ABW52p+whkMZ/6Tso
tBUTqiNU/8MSfM9I0EgaiszMsXOuX13kHx6ATcgo9YIP8dBAouXaNsjh2FBY/Uvd
zfxNVIEOFjYsQMl4RsNi/O3o2jKh5l/l4F79EiVPosvz5WIyRTDIJOdmEPZFgdNY
sgNkAmz6Od9g1R8C5wzQRyCiBcpITmrHd3hCkQynfM0aphuVd3u7lSbr4fgsBo7q
Yym2dJFHuMVzCcn8XASAUu1TVl/67ukI/Y3nRGLjAN3oMcM9NdkOwv6hVXJXnO4V
8Z6yUdQnVBLOxa1XullmqBKT4CY/Fj1ZoQvw8XQ=
-----END CERTIFICATE-----
