Certificate:
    Data:
        Version: 3 (0x2)
        Serial Number: 5 (0x5)
    Signature Algorithm: sha1WithRSAEncryption
        Issuer: C=FR, ST=Ile-de-France, L=Paris, O=INTECH, CN=root_cbi/emailAddress=root_cbi@canbreakit.fr
        Validity
            Not Before: Jun 14 07:20:06 2017 GMT
            Not After : Jun 14 07:20:06 2018 GMT
        Subject: C=FR, ST=Ile-de-France, L=Paris, O=INTECH, CN=tyty
        Subject Public Key Info:
            Public Key Algorithm: rsaEncryption
                Public-Key: (2048 bit)
                Modulus:
                    00:9b:c8:e6:b2:aa:3b:b6:bb:f6:36:4e:77:6e:5d:
                    3d:e7:26:6a:13:ca:d3:55:4b:00:e9:43:3f:76:76:
                    4f:3a:32:8e:6e:01:5f:b6:0c:37:97:b9:2a:f1:20:
                    03:10:ff:92:90:98:fc:ad:a3:6c:83:84:3e:9e:1e:
                    41:16:ed:a9:35:d8:be:0c:d3:8f:56:11:19:b3:a8:
                    e4:e6:4c:0f:55:9a:78:15:a8:cc:a3:5b:cd:35:6b:
                    eb:53:0d:9d:cd:14:41:b6:41:3c:ea:f3:2a:74:ff:
                    90:a6:13:1d:3d:11:e5:30:19:b8:5e:ad:c6:3a:e1:
                    9c:09:72:63:2d:3c:a0:37:c1:7b:5d:15:82:07:f4:
                    77:26:09:76:83:2b:19:96:0e:97:5f:19:c5:c0:08:
                    30:51:d5:6e:e2:45:23:ea:ba:71:18:3c:52:42:19:
                    a9:df:e2:b0:c9:74:74:fc:02:38:f4:37:1f:b3:9a:
                    93:8a:1c:f1:d4:60:c3:ca:03:56:01:d5:64:d5:a7:
                    e1:9c:95:2f:b0:7b:87:18:2c:2a:23:6b:3c:25:46:
                    f2:92:7c:ce:b2:53:66:ad:6f:79:ac:32:5a:b7:d5:
                    15:ee:d7:74:68:de:32:e8:16:1a:ea:ee:25:20:fa:
                    4a:4f:ba:75:55:46:f9:33:28:53:58:e9:b7:aa:18:
                    3f:a7
                Exponent: 65537 (0x10001)
        X509v3 extensions:
            Netscape Comment: 
                CA Racine
            X509v3 Subject Key Identifier: 
                CC:E1:48:DC:85:79:BB:29:97:C1:0C:16:8A:30:C8:7A:68:5D:59:01
            X509v3 Authority Key Identifier: 
                keyid:8A:81:3D:30:22:93:E3:61:A1:44:BC:19:20:2E:F8:00:29:B5:11:3B
                DirName:/C=FR/ST=Ile-de-France/L=Paris/O=INTECH/CN=root_cbi/emailAddress=root_cbi@canbreakit.fr
                serial:DF:97:F0:62:66:C6:31:5E

            X509v3 Basic Constraints: critical
                CA:TRUE, pathlen:1
            X509v3 Key Usage: 
                Certificate Sign, CRL Sign
    Signature Algorithm: sha1WithRSAEncryption
         ad:8b:01:9a:6a:a8:4e:dd:d5:08:f5:d4:05:c2:68:e9:4e:47:
         aa:d1:2a:b3:eb:13:3d:b8:8b:2b:ad:c0:b4:01:3a:74:ee:61:
         47:ec:3b:38:75:91:2f:c2:c8:fc:d0:5a:2c:32:0d:3b:21:19:
         da:92:21:08:bc:92:0b:ae:26:49:6d:db:88:b8:2d:01:c3:a4:
         4f:73:ce:6b:0a:df:98:42:69:bc:5f:7b:6b:0c:0f:40:02:b8:
         f0:e9:92:46:9e:a8:16:3d:30:ce:6a:4d:b9:1c:26:14:81:cd:
         65:e7:b7:bb:ce:ef:11:49:72:53:90:0b:2d:19:8e:bd:46:45:
         b2:bc:a2:9c:3d:56:07:09:2b:63:57:d9:4b:b0:cb:f6:0f:d9:
         f8:58:9e:3a:b7:5c:aa:c5:90:38:83:f8:b0:28:75:09:f4:83:
         ea:25:47:05:ed:3e:d2:ce:7d:09:82:29:a9:cc:d7:26:5a:4c:
         08:ab:05:d5:4b:af:21:fd:00:69:5f:29:5e:04:ba:99:09:8a:
         55:00:fc:24:71:a7:5d:1d:20:9a:a7:e3:cd:98:7e:c9:eb:76:
         94:5b:1a:53:6b:f6:84:92:84:ed:f7:1a:ed:14:37:5a:1e:8f:
         7e:f8:f9:85:30:66:7c:a2:2a:54:80:94:e9:9f:63:13:1a:ab:
         d5:d8:a2:79
-----BEGIN CERTIFICATE-----
MIIEaTCCA1GgAwIBAgIBBTANBgkqhkiG9w0BAQUFADCBgDELMAkGA1UEBhMCRlIx
FjAUBgNVBAgMDUlsZS1kZS1GcmFuY2UxDjAMBgNVBAcMBVBhcmlzMQ8wDQYDVQQK
DAZJTlRFQ0gxETAPBgNVBAMMCHJvb3RfY2JpMSUwIwYJKoZIhvcNAQkBFhZyb290
X2NiaUBjYW5icmVha2l0LmZyMB4XDTE3MDYxNDA3MjAwNloXDTE4MDYxNDA3MjAw
NlowVTELMAkGA1UEBhMCRlIxFjAUBgNVBAgMDUlsZS1kZS1GcmFuY2UxDjAMBgNV
BAcMBVBhcmlzMQ8wDQYDVQQKDAZJTlRFQ0gxDTALBgNVBAMMBHR5dHkwggEiMA0G
CSqGSIb3DQEBAQUAA4IBDwAwggEKAoIBAQCbyOayqju2u/Y2TnduXT3nJmoTytNV
SwDpQz92dk86Mo5uAV+2DDeXuSrxIAMQ/5KQmPyto2yDhD6eHkEW7ak12L4M049W
ERmzqOTmTA9VmngVqMyjW801a+tTDZ3NFEG2QTzq8yp0/5CmEx09EeUwGbhercY6
4ZwJcmMtPKA3wXtdFYIH9HcmCXaDKxmWDpdfGcXACDBR1W7iRSPqunEYPFJCGanf
4rDJdHT8Ajj0Nx+zmpOKHPHUYMPKA1YB1WTVp+GclS+we4cYLCojazwlRvKSfM6y
U2atb3msMlq31RXu13Ro3jLoFhrq7iUg+kpPunVVRvkzKFNY6beqGD+nAgMBAAGj
ggEWMIIBEjAYBglghkgBhvhCAQ0ECxYJQ0EgUmFjaW5lMB0GA1UdDgQWBBTM4Ujc
hXm7KZfBDBaKMMh6aF1ZATCBtQYDVR0jBIGtMIGqgBSKgT0wIpPjYaFEvBkgLvgA
KbURO6GBhqSBgzCBgDELMAkGA1UEBhMCRlIxFjAUBgNVBAgMDUlsZS1kZS1GcmFu
Y2UxDjAMBgNVBAcMBVBhcmlzMQ8wDQYDVQQKDAZJTlRFQ0gxETAPBgNVBAMMCHJv
b3RfY2JpMSUwIwYJKoZIhvcNAQkBFhZyb290X2NiaUBjYW5icmVha2l0LmZyggkA
35fwYmbGMV4wEgYDVR0TAQH/BAgwBgEB/wIBATALBgNVHQ8EBAMCAQYwDQYJKoZI
hvcNAQEFBQADggEBAK2LAZpqqE7d1Qj11AXCaOlOR6rRKrPrEz24iyutwLQBOnTu
YUfsOzh1kS/CyPzQWiwyDTshGdqSIQi8kguuJklt24i4LQHDpE9zzmsK35hCabxf
e2sMD0ACuPDpkkaeqBY9MM5qTbkcJhSBzWXnt7vO7xFJclOQCy0Zjr1GRbK8opw9
VgcJK2NX2Uuwy/YP2fhYnjq3XKrFkDiD+LAodQn0g+olRwXtPtLOfQmCKanM1yZa
TAirBdVLryH9AGlfKV4EupkJilUA/CRxp10dIJqn482YfsnrdpRbGlNr9oSShO33
Gu0UN1oej374+YUwZnyiKlSAlOmfYxMaq9XYonk=
-----END CERTIFICATE-----
