Certificate:
    Data:
        Version: 3 (0x2)
        Serial Number: 6 (0x6)
    Signature Algorithm: sha1WithRSAEncryption
        Issuer: C=FR, ST=Ile-de-France, L=Paris, O=INTECH, CN=root_cbi/emailAddress=root_cbi@canbreakit.fr
        Validity
            Not Before: Jun 14 07:29:18 2017 GMT
            Not After : Jun 14 07:29:18 2018 GMT
        Subject: C=FR, ST=Ile-de-France, L=Paris, O=INTECH, CN=tyty
        Subject Public Key Info:
            Public Key Algorithm: rsaEncryption
                Public-Key: (2048 bit)
                Modulus:
                    00:be:ff:94:8d:ec:9a:61:c5:69:14:e0:0f:c4:6e:
                    43:ab:04:d6:e6:74:f9:db:ec:a6:7e:63:9b:ee:fc:
                    bf:50:c3:a0:c0:92:2f:d7:ab:f6:a9:7f:47:db:ce:
                    ff:e3:8e:29:6e:f0:21:09:f4:74:76:74:4d:e3:9b:
                    77:e8:c0:7d:52:45:b4:77:fe:dd:5b:49:20:d5:76:
                    dd:d4:a5:55:51:38:64:12:ef:94:d4:02:cb:c9:0a:
                    76:db:1f:db:ee:12:6f:45:c8:0a:f8:31:71:66:7b:
                    10:47:cf:8a:10:43:49:51:11:1f:80:53:21:fd:6d:
                    a2:8b:4a:73:47:30:95:1a:0a:52:b5:bd:cc:0a:50:
                    2e:e0:26:d3:1b:f9:98:c9:19:f3:e5:87:ca:a9:0a:
                    d0:0f:59:9b:67:a7:53:62:af:83:d5:4c:41:88:1f:
                    eb:f4:f3:4d:22:53:5f:ba:bd:24:80:30:ed:c4:d6:
                    dc:5f:f4:95:33:a8:4a:44:6e:57:59:e2:31:f2:2a:
                    92:27:8c:ff:02:d2:98:70:dd:58:fb:d4:97:6e:ba:
                    9f:6e:7a:de:fd:27:80:52:c1:ef:8b:d9:77:20:5a:
                    64:48:d3:c0:11:99:6a:5d:34:25:39:e8:a6:da:8d:
                    fd:ca:6d:ab:ba:f2:c0:0f:c6:28:b0:fe:71:6b:d2:
                    8d:c5
                Exponent: 65537 (0x10001)
        X509v3 extensions:
            Netscape Comment: 
                CA Racine
            X509v3 Subject Key Identifier: 
                98:B0:04:A4:9A:C3:88:71:12:A7:CE:69:28:9F:F8:3D:EA:4E:2C:77
            X509v3 Authority Key Identifier: 
                keyid:8A:81:3D:30:22:93:E3:61:A1:44:BC:19:20:2E:F8:00:29:B5:11:3B
                DirName:/C=FR/ST=Ile-de-France/L=Paris/O=INTECH/CN=root_cbi/emailAddress=root_cbi@canbreakit.fr
                serial:DF:97:F0:62:66:C6:31:5E

            X509v3 Basic Constraints: critical
                CA:TRUE, pathlen:1
            X509v3 Key Usage: 
                Certificate Sign, CRL Sign
    Signature Algorithm: sha1WithRSAEncryption
         7b:92:e2:c9:7f:d6:54:2f:e8:b2:e6:70:9b:2d:f0:7e:ca:8d:
         d5:36:44:77:37:3d:db:d2:45:98:97:5d:2e:72:8c:98:42:e7:
         3b:14:63:8b:42:fa:c5:ef:d6:20:bf:1c:e9:c7:6d:b9:d7:78:
         e9:e6:54:e9:73:41:95:e0:61:bd:0d:d0:b1:b4:b0:53:0a:1c:
         31:f6:aa:ae:31:09:6d:43:2c:38:17:71:3a:80:76:87:78:38:
         8b:b9:85:2a:12:7c:ea:e4:1c:f7:1c:8a:73:51:30:31:9f:1f:
         0d:6f:ca:69:3e:2b:79:fc:ce:b5:c6:ab:38:07:8d:69:8c:60:
         01:4a:27:8e:41:49:13:e5:7b:5a:e9:54:96:48:4a:f8:8f:07:
         2e:1c:6f:78:e2:e2:a5:b0:67:b0:a7:aa:4c:22:7e:fe:d3:69:
         18:c3:48:18:2d:19:6f:0e:7d:5b:b3:f6:e6:8b:72:32:32:5c:
         15:29:cf:88:19:b3:26:6e:1d:e0:a8:a2:86:68:c4:4b:25:16:
         28:a4:81:68:3a:20:f3:9f:b3:0c:fb:03:f7:23:c9:b9:38:76:
         c2:24:f1:09:a5:df:6a:7d:a9:29:6b:eb:f9:89:81:12:b1:cd:
         e5:5f:09:c8:1e:e1:d3:28:ce:43:60:cd:94:02:8c:95:64:11:
         71:c1:a7:ae
-----BEGIN CERTIFICATE-----
MIIEaTCCA1GgAwIBAgIBBjANBgkqhkiG9w0BAQUFADCBgDELMAkGA1UEBhMCRlIx
FjAUBgNVBAgMDUlsZS1kZS1GcmFuY2UxDjAMBgNVBAcMBVBhcmlzMQ8wDQYDVQQK
DAZJTlRFQ0gxETAPBgNVBAMMCHJvb3RfY2JpMSUwIwYJKoZIhvcNAQkBFhZyb290
X2NiaUBjYW5icmVha2l0LmZyMB4XDTE3MDYxNDA3MjkxOFoXDTE4MDYxNDA3Mjkx
OFowVTELMAkGA1UEBhMCRlIxFjAUBgNVBAgMDUlsZS1kZS1GcmFuY2UxDjAMBgNV
BAcMBVBhcmlzMQ8wDQYDVQQKDAZJTlRFQ0gxDTALBgNVBAMMBHR5dHkwggEiMA0G
CSqGSIb3DQEBAQUAA4IBDwAwggEKAoIBAQC+/5SN7JphxWkU4A/EbkOrBNbmdPnb
7KZ+Y5vu/L9Qw6DAki/Xq/apf0fbzv/jjilu8CEJ9HR2dE3jm3fowH1SRbR3/t1b
SSDVdt3UpVVROGQS75TUAsvJCnbbH9vuEm9FyAr4MXFmexBHz4oQQ0lRER+AUyH9
baKLSnNHMJUaClK1vcwKUC7gJtMb+ZjJGfPlh8qpCtAPWZtnp1Nir4PVTEGIH+v0
800iU1+6vSSAMO3E1txf9JUzqEpEbldZ4jHyKpInjP8C0phw3Vj71Jduup9uet79
J4BSwe+L2XcgWmRI08ARmWpdNCU56Kbajf3Kbau68sAPxiiw/nFr0o3FAgMBAAGj
ggEWMIIBEjAYBglghkgBhvhCAQ0ECxYJQ0EgUmFjaW5lMB0GA1UdDgQWBBSYsASk
msOIcRKnzmkon/g96k4sdzCBtQYDVR0jBIGtMIGqgBSKgT0wIpPjYaFEvBkgLvgA
KbURO6GBhqSBgzCBgDELMAkGA1UEBhMCRlIxFjAUBgNVBAgMDUlsZS1kZS1GcmFu
Y2UxDjAMBgNVBAcMBVBhcmlzMQ8wDQYDVQQKDAZJTlRFQ0gxETAPBgNVBAMMCHJv
b3RfY2JpMSUwIwYJKoZIhvcNAQkBFhZyb290X2NiaUBjYW5icmVha2l0LmZyggkA
35fwYmbGMV4wEgYDVR0TAQH/BAgwBgEB/wIBATALBgNVHQ8EBAMCAQYwDQYJKoZI
hvcNAQEFBQADggEBAHuS4sl/1lQv6LLmcJst8H7KjdU2RHc3PdvSRZiXXS5yjJhC
5zsUY4tC+sXv1iC/HOnHbbnXeOnmVOlzQZXgYb0N0LG0sFMKHDH2qq4xCW1DLDgX
cTqAdod4OIu5hSoSfOrkHPccinNRMDGfHw1vymk+K3n8zrXGqzgHjWmMYAFKJ45B
SRPle1rpVJZISviPBy4cb3ji4qWwZ7Cnqkwifv7TaRjDSBgtGW8OfVuz9uaLcjIy
XBUpz4gZsyZuHeCoooZoxEslFiikgWg6IPOfswz7A/cjybk4dsIk8Qml32p9qSlr
6/mJgRKxzeVfCcge4dMozkNgzZQCjJVkEXHBp64=
-----END CERTIFICATE-----
