Certificate:
    Data:
        Version: 3 (0x2)
        Serial Number: 11 (0xb)
    Signature Algorithm: sha1WithRSAEncryption
        Issuer: C=FR, ST=Ile-de-France, L=Paris, O=INTECH, CN=root_cbi/emailAddress=root_cbi@canbreakit.fr
        Validity
            Not Before: Jun 14 12:36:19 2017 GMT
            Not After : Jun 14 12:36:19 2018 GMT
        Subject: C=FR, ST=Ile-de-France, L=Paris, O=INTECH, CN=tftf
        Subject Public Key Info:
            Public Key Algorithm: rsaEncryption
                Public-Key: (2048 bit)
                Modulus:
                    00:c1:9d:98:14:e9:f3:6f:4c:13:46:72:34:79:79:
                    b2:9f:2b:c3:90:0d:c6:3f:f2:2a:12:e7:50:01:d1:
                    8a:f0:5f:43:41:de:be:07:02:da:f7:bc:df:bf:f1:
                    e1:54:a1:26:eb:9b:fd:7f:68:ab:df:a5:f4:38:55:
                    30:3d:79:12:cb:7a:8d:8b:e0:0a:40:80:2f:1b:c6:
                    ae:d4:b7:fb:d4:cc:14:98:6c:5a:c4:1f:44:1f:6c:
                    3b:98:f2:b2:28:b2:c3:80:3e:f9:4f:7e:36:39:29:
                    a6:c1:97:26:83:e5:21:3c:39:ce:0b:76:c3:64:ed:
                    c2:21:8a:6a:1a:71:d0:e5:14:ad:bd:76:2a:e5:35:
                    b0:8a:3c:68:3f:d2:f1:52:55:cd:9b:66:e6:51:7c:
                    6d:fe:77:c8:c2:ae:5e:78:51:8a:5c:ab:6a:e4:73:
                    fe:f2:1b:2c:ba:86:95:19:df:14:74:4e:a8:99:8c:
                    7c:c0:7d:70:67:e7:24:10:40:01:65:2d:54:48:19:
                    36:39:4b:9c:06:61:29:5f:33:99:65:5a:32:a8:fd:
                    ee:ca:df:93:b8:04:5a:05:ec:ae:5b:6b:e3:9d:b2:
                    e4:23:af:60:6c:aa:af:d4:00:2c:11:1e:ea:59:61:
                    63:3a:de:f9:1e:bc:db:46:ea:6c:a3:11:25:52:9f:
                    f9:3f
                Exponent: 65537 (0x10001)
        X509v3 extensions:
            Netscape Comment: 
                CA Racine
            X509v3 Subject Key Identifier: 
                EC:A5:74:62:09:40:CF:10:18:F3:6B:AF:D6:FB:07:B6:51:35:FB:9A
            X509v3 Authority Key Identifier: 
                keyid:8A:81:3D:30:22:93:E3:61:A1:44:BC:19:20:2E:F8:00:29:B5:11:3B
                DirName:/C=FR/ST=Ile-de-France/L=Paris/O=INTECH/CN=root_cbi/emailAddress=root_cbi@canbreakit.fr
                serial:DF:97:F0:62:66:C6:31:5E

            X509v3 Basic Constraints: critical
                CA:TRUE, pathlen:1
            X509v3 Key Usage: 
                Certificate Sign, CRL Sign
    Signature Algorithm: sha1WithRSAEncryption
         4a:78:7e:90:28:cf:16:83:c9:f2:d5:d5:e5:81:0e:16:25:58:
         fb:7d:02:6c:2c:07:3e:75:80:03:0a:ac:0d:af:c0:0b:65:cf:
         8c:e6:c7:aa:4e:84:22:84:ba:ca:5d:a6:dd:2f:52:47:3c:05:
         6f:cd:ef:89:6b:58:7a:b7:c7:f8:bf:35:fc:47:93:73:a4:e3:
         45:92:4a:dc:63:39:ef:e7:b2:1a:60:60:1c:2f:b7:0c:2b:a3:
         21:22:50:46:76:3c:8d:df:77:c2:a7:99:10:ae:f8:ab:63:ce:
         5a:d3:fd:3c:d1:ec:ca:96:a7:14:50:a7:a0:fe:88:19:24:f4:
         33:b6:96:be:fb:2d:c8:b2:da:c1:9c:45:20:90:34:cc:ac:e4:
         3e:47:51:42:f3:db:5b:f8:27:4e:68:37:3a:d4:f2:5c:bb:c0:
         48:24:87:d8:e6:18:31:66:e2:6d:3c:c1:3b:0c:75:f8:1e:53:
         c7:ae:34:53:42:cf:44:3f:f9:1d:21:5f:25:57:62:59:23:77:
         a7:e1:0e:c2:6f:bf:41:81:dc:d8:a1:fd:4f:a4:b6:d8:11:2a:
         93:d8:f2:ff:16:d1:fb:7e:97:5e:2e:2c:0b:f0:05:f5:bd:dc:
         60:27:6a:cd:f0:b8:50:0d:7d:46:82:8b:f3:d0:08:16:b0:e0:
         d4:c0:29:38
-----BEGIN CERTIFICATE-----
MIIEaTCCA1GgAwIBAgIBCzANBgkqhkiG9w0BAQUFADCBgDELMAkGA1UEBhMCRlIx
FjAUBgNVBAgMDUlsZS1kZS1GcmFuY2UxDjAMBgNVBAcMBVBhcmlzMQ8wDQYDVQQK
DAZJTlRFQ0gxETAPBgNVBAMMCHJvb3RfY2JpMSUwIwYJKoZIhvcNAQkBFhZyb290
X2NiaUBjYW5icmVha2l0LmZyMB4XDTE3MDYxNDEyMzYxOVoXDTE4MDYxNDEyMzYx
OVowVTELMAkGA1UEBhMCRlIxFjAUBgNVBAgMDUlsZS1kZS1GcmFuY2UxDjAMBgNV
BAcMBVBhcmlzMQ8wDQYDVQQKDAZJTlRFQ0gxDTALBgNVBAMMBHRmdGYwggEiMA0G
CSqGSIb3DQEBAQUAA4IBDwAwggEKAoIBAQDBnZgU6fNvTBNGcjR5ebKfK8OQDcY/
8ioS51AB0YrwX0NB3r4HAtr3vN+/8eFUoSbrm/1/aKvfpfQ4VTA9eRLLeo2L4ApA
gC8bxq7Ut/vUzBSYbFrEH0QfbDuY8rIossOAPvlPfjY5KabBlyaD5SE8Oc4LdsNk
7cIhimoacdDlFK29dirlNbCKPGg/0vFSVc2bZuZRfG3+d8jCrl54UYpcq2rkc/7y
Gyy6hpUZ3xR0TqiZjHzAfXBn5yQQQAFlLVRIGTY5S5wGYSlfM5llWjKo/e7K35O4
BFoF7K5ba+OdsuQjr2Bsqq/UACwRHupZYWM63vkevNtG6myjESVSn/k/AgMBAAGj
ggEWMIIBEjAYBglghkgBhvhCAQ0ECxYJQ0EgUmFjaW5lMB0GA1UdDgQWBBTspXRi
CUDPEBjza6/W+we2UTX7mjCBtQYDVR0jBIGtMIGqgBSKgT0wIpPjYaFEvBkgLvgA
KbURO6GBhqSBgzCBgDELMAkGA1UEBhMCRlIxFjAUBgNVBAgMDUlsZS1kZS1GcmFu
Y2UxDjAMBgNVBAcMBVBhcmlzMQ8wDQYDVQQKDAZJTlRFQ0gxETAPBgNVBAMMCHJv
b3RfY2JpMSUwIwYJKoZIhvcNAQkBFhZyb290X2NiaUBjYW5icmVha2l0LmZyggkA
35fwYmbGMV4wEgYDVR0TAQH/BAgwBgEB/wIBATALBgNVHQ8EBAMCAQYwDQYJKoZI
hvcNAQEFBQADggEBAEp4fpAozxaDyfLV1eWBDhYlWPt9AmwsBz51gAMKrA2vwAtl
z4zmx6pOhCKEuspdpt0vUkc8BW/N74lrWHq3x/i/NfxHk3Ok40WSStxjOe/nshpg
YBwvtwwroyEiUEZ2PI3fd8KnmRCu+KtjzlrT/TzR7MqWpxRQp6D+iBkk9DO2lr77
Lciy2sGcRSCQNMys5D5HUULz21v4J05oNzrU8ly7wEgkh9jmGDFm4m08wTsMdfge
U8euNFNCz0Q/+R0hXyVXYlkjd6fhDsJvv0GB3Nih/U+kttgRKpPY8v8W0ft+l14u
LAvwBfW93GAnas3wuFANfUaCi/PQCBaw4NTAKTg=
-----END CERTIFICATE-----
