Certificate:
    Data:
        Version: 3 (0x2)
        Serial Number: 9 (0x9)
    Signature Algorithm: sha1WithRSAEncryption
        Issuer: C=FR, ST=Ile-de-France, L=Paris, O=INTECH, CN=root_cbi/emailAddress=root_cbi@canbreakit.fr
        Validity
            Not Before: Jun 14 08:35:06 2017 GMT
            Not After : Jun 14 08:35:06 2018 GMT
        Subject: C=FR, ST=Ile-de-France, L=Paris, O=INTECH, CN=tvtv
        Subject Public Key Info:
            Public Key Algorithm: rsaEncryption
                Public-Key: (2048 bit)
                Modulus:
                    00:c5:bd:5c:7d:64:ea:20:f9:b8:7e:d3:bc:44:70:
                    3e:e4:df:d8:f5:46:a0:4d:e6:05:54:39:e8:e1:2f:
                    22:18:a3:52:6f:71:40:f5:ff:a1:ac:30:91:6e:ad:
                    07:f4:9a:d9:8e:6c:89:65:a4:72:69:fc:52:95:1e:
                    20:f5:35:df:84:87:df:29:b9:3a:d8:6c:b0:c8:b0:
                    b3:84:86:ce:54:7b:03:5e:ed:53:05:b6:0b:ca:f7:
                    86:3f:88:ce:3d:a7:60:37:ff:cb:ad:68:f8:7b:8b:
                    b4:14:de:da:f4:19:b7:ff:cc:48:da:aa:d1:87:12:
                    0f:4f:93:91:79:6d:ed:41:4a:93:08:c0:7c:0a:9f:
                    12:82:35:f3:4c:e0:66:38:63:9c:96:ef:6d:d1:fc:
                    8b:c5:c7:17:00:28:af:22:e1:fb:5a:e5:5b:6f:1a:
                    8e:41:40:1c:f9:4f:69:86:c5:9c:4a:e4:82:79:f3:
                    e2:1c:c1:3a:65:e4:ed:dd:33:ef:31:cb:10:58:45:
                    91:76:71:c1:d6:28:8d:56:ff:85:ea:13:f3:e4:e6:
                    ea:8a:fe:6e:b8:33:f5:2c:06:26:c1:ec:e4:1e:12:
                    fc:4f:93:6e:74:5c:79:4a:80:f5:2a:93:8a:d7:8e:
                    64:e8:1d:88:d8:ed:35:dc:fc:c9:00:da:7f:20:46:
                    32:47
                Exponent: 65537 (0x10001)
        X509v3 extensions:
            Netscape Comment: 
                CA Racine
            X509v3 Subject Key Identifier: 
                38:6E:D0:89:FF:D1:DA:B5:AE:60:CD:32:09:81:00:9D:0A:21:DB:FD
            X509v3 Authority Key Identifier: 
                keyid:8A:81:3D:30:22:93:E3:61:A1:44:BC:19:20:2E:F8:00:29:B5:11:3B
                DirName:/C=FR/ST=Ile-de-France/L=Paris/O=INTECH/CN=root_cbi/emailAddress=root_cbi@canbreakit.fr
                serial:DF:97:F0:62:66:C6:31:5E

            X509v3 Basic Constraints: critical
                CA:TRUE, pathlen:1
            X509v3 Key Usage: 
                Certificate Sign, CRL Sign
    Signature Algorithm: sha1WithRSAEncryption
         8c:47:f2:eb:4c:7b:24:44:27:74:a9:14:4f:d8:9c:fb:7c:f3:
         52:db:b8:77:05:99:79:a6:bf:cc:17:9e:6b:b5:09:d2:dc:33:
         fb:82:8c:3a:9c:5a:b1:ad:4d:1a:45:87:fe:3f:71:21:7a:e3:
         98:e0:5d:95:d5:c6:46:0f:27:bc:17:59:18:4f:f3:21:e6:a0:
         85:7c:36:59:7f:03:92:3f:56:67:a9:ba:61:61:7f:df:e2:b3:
         50:f1:c9:dd:44:f4:62:1b:8a:b7:34:d4:61:e8:70:c5:28:e5:
         da:6e:5d:5c:87:39:2f:e0:18:aa:74:5f:8d:23:46:8a:d5:92:
         e7:35:ac:36:7e:50:07:83:76:ec:ef:df:59:bf:6d:61:84:8e:
         30:af:99:81:fd:cd:32:0f:f7:54:cf:55:0c:e6:0b:41:c3:d9:
         18:6a:51:7c:da:f7:c9:c2:85:e2:cb:67:9f:fb:f4:7c:78:a4:
         90:86:65:79:bf:b3:bc:90:5e:a1:fd:ad:23:5e:73:ac:0a:f9:
         2a:24:9b:6c:59:56:3d:1c:3a:fb:81:62:1f:51:c7:6c:13:a4:
         c2:e8:21:ca:d7:1f:c8:8d:51:5e:e2:af:87:98:f6:2c:fb:1a:
         90:b8:cd:03:cb:c8:05:75:e8:fe:d6:a3:ee:62:40:01:d5:96:
         23:3e:b2:b3
-----BEGIN CERTIFICATE-----
MIIEaTCCA1GgAwIBAgIBCTANBgkqhkiG9w0BAQUFADCBgDELMAkGA1UEBhMCRlIx
FjAUBgNVBAgMDUlsZS1kZS1GcmFuY2UxDjAMBgNVBAcMBVBhcmlzMQ8wDQYDVQQK
DAZJTlRFQ0gxETAPBgNVBAMMCHJvb3RfY2JpMSUwIwYJKoZIhvcNAQkBFhZyb290
X2NiaUBjYW5icmVha2l0LmZyMB4XDTE3MDYxNDA4MzUwNloXDTE4MDYxNDA4MzUw
NlowVTELMAkGA1UEBhMCRlIxFjAUBgNVBAgMDUlsZS1kZS1GcmFuY2UxDjAMBgNV
BAcMBVBhcmlzMQ8wDQYDVQQKDAZJTlRFQ0gxDTALBgNVBAMMBHR2dHYwggEiMA0G
CSqGSIb3DQEBAQUAA4IBDwAwggEKAoIBAQDFvVx9ZOog+bh+07xEcD7k39j1RqBN
5gVUOejhLyIYo1JvcUD1/6GsMJFurQf0mtmObIllpHJp/FKVHiD1Nd+Eh98puTrY
bLDIsLOEhs5UewNe7VMFtgvK94Y/iM49p2A3/8utaPh7i7QU3tr0Gbf/zEjaqtGH
Eg9Pk5F5be1BSpMIwHwKnxKCNfNM4GY4Y5yW723R/IvFxxcAKK8i4fta5VtvGo5B
QBz5T2mGxZxK5IJ58+IcwTpl5O3dM+8xyxBYRZF2ccHWKI1W/4XqE/Pk5uqK/m64
M/UsBibB7OQeEvxPk250XHlKgPUqk4rXjmToHYjY7TXc/MkA2n8gRjJHAgMBAAGj
ggEWMIIBEjAYBglghkgBhvhCAQ0ECxYJQ0EgUmFjaW5lMB0GA1UdDgQWBBQ4btCJ
/9Hata5gzTIJgQCdCiHb/TCBtQYDVR0jBIGtMIGqgBSKgT0wIpPjYaFEvBkgLvgA
KbURO6GBhqSBgzCBgDELMAkGA1UEBhMCRlIxFjAUBgNVBAgMDUlsZS1kZS1GcmFu
Y2UxDjAMBgNVBAcMBVBhcmlzMQ8wDQYDVQQKDAZJTlRFQ0gxETAPBgNVBAMMCHJv
b3RfY2JpMSUwIwYJKoZIhvcNAQkBFhZyb290X2NiaUBjYW5icmVha2l0LmZyggkA
35fwYmbGMV4wEgYDVR0TAQH/BAgwBgEB/wIBATALBgNVHQ8EBAMCAQYwDQYJKoZI
hvcNAQEFBQADggEBAIxH8utMeyREJ3SpFE/YnPt881LbuHcFmXmmv8wXnmu1CdLc
M/uCjDqcWrGtTRpFh/4/cSF645jgXZXVxkYPJ7wXWRhP8yHmoIV8Nll/A5I/Vmep
umFhf9/is1Dxyd1E9GIbirc01GHocMUo5dpuXVyHOS/gGKp0X40jRorVkuc1rDZ+
UAeDduzv31m/bWGEjjCvmYH9zTIP91TPVQzmC0HD2RhqUXza98nCheLLZ5/79Hx4
pJCGZXm/s7yQXqH9rSNec6wK+Sokm2xZVj0cOvuBYh9Rx2wTpMLoIcrXH8iNUV7i
r4eY9iz7GpC4zQPLyAV16P7Wo+5iQAHVliM+srM=
-----END CERTIFICATE-----
