Certificate:
    Data:
        Version: 3 (0x2)
        Serial Number: 1 (0x1)
    Signature Algorithm: sha1WithRSAEncryption
        Issuer: C=FR, ST=Ile-de-France, L=Paris, O=INTECH, CN=root_cbi/emailAddress=root_cbi@canbreakit.fr
        Validity
            Not Before: Jun 13 17:10:56 2017 GMT
            Not After : Jun 13 17:10:56 2018 GMT
        Subject: C=FR, ST=Ile-de-France, L=Paris, O=INTECH, CN=root_cbi_g2/emailAddress=root_cbi_g2@canbreakit.fr
        Subject Public Key Info:
            Public Key Algorithm: rsaEncryption
                Public-Key: (2048 bit)
                Modulus:
                    00:96:9a:6b:fc:45:d7:92:e4:f5:3c:3a:10:64:04:
                    2e:f0:9a:e6:2f:f5:f2:b7:14:5a:23:c7:a3:f9:a0:
                    ed:bb:2c:df:ea:23:d7:63:af:50:3f:36:af:29:ca:
                    b0:fd:03:79:2b:07:df:cc:cd:0c:47:aa:de:d4:43:
                    05:47:ad:92:3e:6d:a1:d1:8b:2f:5a:f4:9d:dd:f5:
                    0a:f6:cc:b7:a3:10:c8:74:1d:18:4f:c4:72:b4:5a:
                    f5:42:36:16:ca:0a:be:37:ab:3c:77:15:72:0d:8d:
                    61:21:01:4e:f7:a3:1a:8f:42:cc:fb:ae:b6:5f:f8:
                    f9:04:21:c5:97:03:ec:19:30:d0:47:be:ef:12:69:
                    25:57:01:53:80:1c:32:8d:62:f6:cc:14:69:b8:4c:
                    b5:d9:ef:dc:64:e7:bc:90:60:f5:18:3b:2c:7f:e9:
                    a3:e2:7d:6f:d6:a2:20:c8:2f:c1:c7:34:36:26:1c:
                    df:db:3a:e1:2b:5c:53:c0:a2:0e:5b:38:1a:54:3e:
                    0c:ab:f1:ab:3b:64:d1:e4:6a:be:93:01:ce:a8:47:
                    82:25:58:5e:8b:f3:4e:6a:d1:2c:ea:6c:2c:1f:a0:
                    3b:c8:fd:8a:51:bb:90:f9:81:1a:da:6f:b4:20:8b:
                    ab:b4:8d:fc:91:51:71:a5:c0:3f:51:ec:a2:22:bd:
                    e4:23
                Exponent: 65537 (0x10001)
        X509v3 extensions:
            Netscape Comment: 
                CA SSL
            X509v3 Basic Constraints: critical
                CA:TRUE, pathlen:0
            X509v3 Subject Key Identifier: 
                DE:40:C4:7A:DB:E5:8D:A1:18:49:7E:64:16:9C:51:AE:06:4D:12:94
            X509v3 Authority Key Identifier: 
                keyid:8A:81:3D:30:22:93:E3:61:A1:44:BC:19:20:2E:F8:00:29:B5:11:3B
                DirName:/C=FR/ST=Ile-de-France/L=Paris/O=INTECH/CN=root_cbi/emailAddress=root_cbi@canbreakit.fr
                serial:DF:97:F0:62:66:C6:31:5E

            X509v3 Issuer Alternative Name: 
                <EMPTY>

            X509v3 Key Usage: 
                Certificate Sign, CRL Sign
            Netscape Cert Type: 
                SSL CA
    Signature Algorithm: sha1WithRSAEncryption
         29:99:fd:0d:5f:c6:87:02:1e:44:8d:49:da:54:43:4d:d8:08:
         77:2a:f3:13:4f:4e:46:f7:27:7c:7c:8b:e3:2b:66:91:10:09:
         1e:5e:10:0f:2e:b5:2b:ad:d2:93:14:ed:f3:11:97:7b:33:49:
         63:b0:2e:bc:32:96:d6:89:91:88:62:ad:9d:39:16:a9:fc:98:
         47:a9:5d:34:3c:53:a2:f9:9f:87:33:aa:db:ce:12:bb:58:bb:
         1e:00:a1:26:e3:52:a9:31:59:93:fa:e4:52:2d:3c:93:92:98:
         c9:20:95:cd:64:bc:dd:c9:35:cd:7b:58:4d:ba:ab:2a:94:93:
         11:01:f6:ac:4d:b7:89:f9:99:6e:03:c0:7e:bf:e4:b0:26:66:
         80:5b:38:88:7c:82:5b:51:81:01:96:31:35:0a:46:62:2e:73:
         b1:18:98:1d:6a:81:79:31:ea:79:3a:e8:89:35:c7:83:90:ba:
         47:80:c1:21:91:cf:52:7c:66:a0:ef:29:e9:e2:38:d6:45:93:
         97:8d:df:8c:32:e3:ac:0d:6a:54:56:d7:48:94:cb:9a:0d:5c:
         cc:16:d8:9f:07:52:9e:e8:e5:35:d0:fb:c1:b7:9e:a7:12:db:
         ea:33:ba:a3:49:06:17:43:e0:fb:b3:a6:dc:de:8e:12:36:24:
         c2:ea:d7:e8
-----BEGIN CERTIFICATE-----
MIIEtjCCA56gAwIBAgIBATANBgkqhkiG9w0BAQUFADCBgDELMAkGA1UEBhMCRlIx
FjAUBgNVBAgMDUlsZS1kZS1GcmFuY2UxDjAMBgNVBAcMBVBhcmlzMQ8wDQYDVQQK
DAZJTlRFQ0gxETAPBgNVBAMMCHJvb3RfY2JpMSUwIwYJKoZIhvcNAQkBFhZyb290
X2NiaUBjYW5icmVha2l0LmZyMB4XDTE3MDYxMzE3MTA1NloXDTE4MDYxMzE3MTA1
NlowgYYxCzAJBgNVBAYTAkZSMRYwFAYDVQQIDA1JbGUtZGUtRnJhbmNlMQ4wDAYD
VQQHDAVQYXJpczEPMA0GA1UECgwGSU5URUNIMRQwEgYDVQQDDAtyb290X2NiaV9n
MjEoMCYGCSqGSIb3DQEJARYZcm9vdF9jYmlfZzJAY2FuYnJlYWtpdC5mcjCCASIw
DQYJKoZIhvcNAQEBBQADggEPADCCAQoCggEBAJaaa/xF15Lk9Tw6EGQELvCa5i/1
8rcUWiPHo/mg7bss3+oj12OvUD82rynKsP0DeSsH38zNDEeq3tRDBUetkj5todGL
L1r0nd31CvbMt6MQyHQdGE/EcrRa9UI2FsoKvjerPHcVcg2NYSEBTvejGo9CzPuu
tl/4+QQhxZcD7Bkw0Ee+7xJpJVcBU4AcMo1i9swUabhMtdnv3GTnvJBg9Rg7LH/p
o+J9b9aiIMgvwcc0NiYc39s64StcU8CiDls4GlQ+DKvxqztk0eRqvpMBzqhHgiVY
XovzTmrRLOpsLB+gO8j9ilG7kPmBGtpvtCCLq7SN/JFRcaXAP1HsoiK95CMCAwEA
AaOCATEwggEtMBUGCWCGSAGG+EIBDQQIFgZDQSBTU0wwEgYDVR0TAQH/BAgwBgEB
/wIBADAdBgNVHQ4EFgQU3kDEetvljaEYSX5kFpxRrgZNEpQwgbUGA1UdIwSBrTCB
qoAUioE9MCKT42GhRLwZIC74ACm1ETuhgYakgYMwgYAxCzAJBgNVBAYTAkZSMRYw
FAYDVQQIDA1JbGUtZGUtRnJhbmNlMQ4wDAYDVQQHDAVQYXJpczEPMA0GA1UECgwG
SU5URUNIMREwDwYDVQQDDAhyb290X2NiaTElMCMGCSqGSIb3DQEJARYWcm9vdF9j
YmlAY2FuYnJlYWtpdC5mcoIJAN+X8GJmxjFeMAkGA1UdEgQCMAAwCwYDVR0PBAQD
AgEGMBEGCWCGSAGG+EIBAQQEAwICBDANBgkqhkiG9w0BAQUFAAOCAQEAKZn9DV/G
hwIeRI1J2lRDTdgIdyrzE09ORvcnfHyL4ytmkRAJHl4QDy61K63SkxTt8xGXezNJ
Y7AuvDKW1omRiGKtnTkWqfyYR6ldNDxTovmfhzOq284Su1i7HgChJuNSqTFZk/rk
Ui08k5KYySCVzWS83ck1zXtYTbqrKpSTEQH2rE23ifmZbgPAfr/ksCZmgFs4iHyC
W1GBAZYxNQpGYi5zsRiYHWqBeTHqeTroiTXHg5C6R4DBIZHPUnxmoO8p6eI41kWT
l43fjDLjrA1qVFbXSJTLmg1czBbYnwdSnujlNdD7wbeepxLb6jO6o0kGF0Pg+7Om
3N6OEjYkwurX6A==
-----END CERTIFICATE-----
