Certificate:
    Data:
        Version: 3 (0x2)
        Serial Number: 3 (0x3)
    Signature Algorithm: sha1WithRSAEncryption
        Issuer: C=FR, ST=Ile-de-France, L=Paris, O=INTECH, CN=root_cbi_g2/emailAddress=root_cbi_g2@canbreakit.fr
        Validity
            Not Before: Jun 14 09:07:59 2017 GMT
            Not After : Jun 14 09:07:59 2018 GMT
        Subject: C=FR, ST=Ile-de-France, L=Paris, O=INTECH, CN=tautau/emailAddress=tautau@canbreakit.fr
        Subject Public Key Info:
            Public Key Algorithm: rsaEncryption
                Public-Key: (1024 bit)
                Modulus:
                    00:bf:c5:f9:1e:dc:2e:36:17:cf:db:4f:01:86:8f:
                    71:14:8b:aa:93:67:71:51:9d:f2:82:5e:8b:5a:04:
                    2d:e1:cd:39:bb:09:53:49:9a:c9:83:d9:45:29:68:
                    b8:23:3f:72:23:53:b6:13:6b:1b:76:94:10:62:be:
                    fe:10:8f:85:19:41:f8:d9:d5:a5:64:79:42:4c:22:
                    fa:30:53:43:f3:b1:5d:9e:66:33:23:df:2b:af:ab:
                    4f:6b:4d:ca:23:46:8b:92:04:cb:af:6e:c1:f3:a0:
                    30:b3:84:d3:b4:32:d6:d4:f2:1f:9e:c7:2a:2b:81:
                    2e:3f:d8:8d:69:7c:1c:77:97
                Exponent: 65537 (0x10001)
        X509v3 extensions:
            Netscape Comment: 
                Certificat Serveur SSL
            X509v3 Subject Key Identifier: 
                1C:EE:05:EB:E8:28:FC:E6:B8:A1:AF:07:0C:6A:12:2C:FF:E3:3F:1D
            X509v3 Authority Key Identifier: 
                keyid:DE:40:C4:7A:DB:E5:8D:A1:18:49:7E:64:16:9C:51:AE:06:4D:12:94
                DirName:/C=FR/ST=Ile-de-France/L=Paris/O=INTECH/CN=root_cbi/emailAddress=root_cbi@canbreakit.fr
                serial:01

            X509v3 Issuer Alternative Name: 
                <EMPTY>

            X509v3 Subject Alternative Name: 
                DNS:www.canbreakit.fr, DNS:www.canbreakit.fr
            X509v3 Basic Constraints: critical
                CA:FALSE
            X509v3 Key Usage: 
                Digital Signature, Non Repudiation, Key Encipherment
            Netscape Cert Type: 
                SSL Server
            X509v3 Extended Key Usage: 
                TLS Web Server Authentication
    Signature Algorithm: sha1WithRSAEncryption
         7b:dd:f9:a4:fc:62:a9:e1:4e:d7:8a:d7:df:20:76:1c:f4:20:
         7c:d4:96:7c:07:85:cd:01:88:74:ce:af:93:5e:8c:ef:aa:70:
         6c:ca:6e:b2:6b:bd:46:75:2e:45:76:27:59:f6:70:df:7b:33:
         6d:84:f3:b2:f2:f4:dc:2c:69:22:39:fe:54:48:e5:0f:ae:5e:
         50:4a:2e:45:01:03:1c:04:ec:14:32:fc:65:00:12:fa:21:aa:
         20:0f:ea:c9:c5:0d:c6:0c:30:2f:c3:1c:4d:42:48:3f:bc:7e:
         08:ee:d3:4f:8f:3c:78:eb:8e:0a:92:93:17:5a:85:42:90:cd:
         d1:a9:87:79:c2:47:26:db:bb:ba:d9:ca:a5:16:9e:1f:86:b4:
         44:71:ad:5c:d2:89:0a:85:a2:d2:ff:2c:35:78:97:8b:0e:fe:
         85:a1:b4:b3:ab:c4:5e:df:5c:d7:12:b2:0b:3b:23:79:ea:c9:
         52:40:9e:fc:de:05:b8:cc:e7:00:cd:1f:65:d2:6c:58:ac:91:
         df:ea:51:b9:b7:44:51:ea:1a:fb:08:0e:7e:43:b4:29:91:ba:
         bc:46:0b:31:59:3b:44:39:e9:7d:f9:66:c9:5a:e8:03:d2:56:
         c2:50:ad:c4:54:86:ac:6b:da:c6:df:0e:8a:c6:7d:ba:bd:03:
         42:04:4d:8e
-----BEGIN CERTIFICATE-----
MIIEdTCCA12gAwIBAgIBAzANBgkqhkiG9w0BAQUFADCBhjELMAkGA1UEBhMCRlIx
FjAUBgNVBAgMDUlsZS1kZS1GcmFuY2UxDjAMBgNVBAcMBVBhcmlzMQ8wDQYDVQQK
DAZJTlRFQ0gxFDASBgNVBAMMC3Jvb3RfY2JpX2cyMSgwJgYJKoZIhvcNAQkBFhly
b290X2NiaV9nMkBjYW5icmVha2l0LmZyMB4XDTE3MDYxNDA5MDc1OVoXDTE4MDYx
NDA5MDc1OVowfDELMAkGA1UEBhMCRlIxFjAUBgNVBAgMDUlsZS1kZS1GcmFuY2Ux
DjAMBgNVBAcMBVBhcmlzMQ8wDQYDVQQKDAZJTlRFQ0gxDzANBgNVBAMMBnRhdXRh
dTEjMCEGCSqGSIb3DQEJARYUdGF1dGF1QGNhbmJyZWFraXQuZnIwgZ8wDQYJKoZI
hvcNAQEBBQADgY0AMIGJAoGBAL/F+R7cLjYXz9tPAYaPcRSLqpNncVGd8oJei1oE
LeHNObsJU0mayYPZRSlouCM/ciNTthNrG3aUEGK+/hCPhRlB+NnVpWR5Qkwi+jBT
Q/OxXZ5mMyPfK6+rT2tNyiNGi5IEy69uwfOgMLOE07Qy1tTyH57HKiuBLj/YjWl8
HHeXAgMBAAGjggF5MIIBdTAlBglghkgBhvhCAQ0EGBYWQ2VydGlmaWNhdCBTZXJ2
ZXVyIFNTTDAdBgNVHQ4EFgQUHO4F6+go/Oa4oa8HDGoSLP/jPx0wga0GA1UdIwSB
pTCBooAU3kDEetvljaEYSX5kFpxRrgZNEpShgYakgYMwgYAxCzAJBgNVBAYTAkZS
MRYwFAYDVQQIDA1JbGUtZGUtRnJhbmNlMQ4wDAYDVQQHDAVQYXJpczEPMA0GA1UE
CgwGSU5URUNIMREwDwYDVQQDDAhyb290X2NiaTElMCMGCSqGSIb3DQEJARYWcm9v
dF9jYmlAY2FuYnJlYWtpdC5mcoIBATAJBgNVHRIEAjAAMC8GA1UdEQQoMCaCEXd3
dy5jYW5icmVha2l0LmZyghF3d3cuY2FuYnJlYWtpdC5mcjAMBgNVHRMBAf8EAjAA
MAsGA1UdDwQEAwIF4DARBglghkgBhvhCAQEEBAMCBkAwEwYDVR0lBAwwCgYIKwYB
BQUHAwEwDQYJKoZIhvcNAQEFBQADggEBAHvd+aT8YqnhTteK198gdhz0IHzUlnwH
hc0BiHTOr5NejO+qcGzKbrJrvUZ1LkV2J1n2cN97M22E87Ly9NwsaSI5/lRI5Q+u
XlBKLkUBAxwE7BQy/GUAEvohqiAP6snFDcYMMC/DHE1CSD+8fgju00+PPHjrjgqS
kxdahUKQzdGph3nCRybbu7rZyqUWnh+GtERxrVzSiQqFotL/LDV4l4sO/oWhtLOr
xF7fXNcSsgs7I3nqyVJAnvzeBbjM5wDNH2XSbFiskd/qUbm3RFHqGvsIDn5DtCmR
urxGCzFZO0Q56X35Zsla6APSVsJQrcRUhqxr2sbfDorGfbq9A0IETY4=
-----END CERTIFICATE-----
