Certificate:
    Data:
        Version: 3 (0x2)
        Serial Number: 2 (0x2)
    Signature Algorithm: sha1WithRSAEncryption
        Issuer: C=FR, ST=Ile-de-France, L=Paris, O=INTECH, CN=tftf
        Validity
            Not Before: Jun 14 13:17:58 2017 GMT
            Not After : Jun 14 13:17:58 2018 GMT
        Subject: C=FR, ST=Ile-de-France, L=Paris, O=INTECH, CN=tiutiu
        Subject Public Key Info:
            Public Key Algorithm: rsaEncryption
                Public-Key: (1024 bit)
                Modulus:
                    00:e3:41:ae:48:ae:89:06:e8:7f:cc:6b:c5:c8:95:
                    93:89:7f:a8:37:a9:3a:90:db:14:1d:09:c9:a4:63:
                    1f:64:d6:e1:fe:0a:30:bd:4a:45:b1:9d:a8:4b:f3:
                    d5:d8:33:28:de:ad:3d:72:b3:c9:f8:0f:ed:bc:40:
                    53:6e:a0:08:1a:1f:b1:a7:9a:5f:55:43:7e:eb:56:
                    88:0d:d1:c8:2e:61:90:19:e4:ab:3d:da:e3:9d:9d:
                    6e:7f:b8:01:0e:17:20:bc:37:ed:79:13:80:47:79:
                    b3:96:58:5d:7d:88:40:a1:59:75:c8:73:d0:a8:c1:
                    14:2d:61:62:da:e6:b8:36:a7
                Exponent: 65537 (0x10001)
        X509v3 extensions:
            Netscape Comment: 
                Certificat Serveur SSL
            X509v3 Subject Key Identifier: 
                02:F5:00:A5:E5:FF:9A:3C:FD:C4:3A:87:D7:EC:42:A9:16:6F:FB:FA
            X509v3 Authority Key Identifier: 
                keyid:BA:B2:43:D2:6F:35:DE:61:47:61:11:4C:BC:9A:78:DB:4C:AD:08:B0
                DirName:/C=FR/ST=Ile-de-France/L=Paris/O=INTECH/CN=root_cbi/emailAddress=root_cbi@canbreakit.fr
                serial:0C

            X509v3 Issuer Alternative Name: 
                <EMPTY>

            X509v3 Subject Alternative Name: 
                DNS:www.canbreakit.fr, DNS:www.canbreakit.fr
            X509v3 Basic Constraints: critical
                CA:FALSE
            X509v3 Key Usage: 
                Digital Signature, Non Repudiation, Key Encipherment
            Netscape Cert Type: 
                SSL Server
            X509v3 Extended Key Usage: 
                TLS Web Server Authentication
    Signature Algorithm: sha1WithRSAEncryption
         50:c9:07:9b:70:50:45:1b:f3:ea:91:a5:f2:5a:17:06:de:d6:
         51:d6:ee:8c:85:94:34:41:65:cc:97:c5:dc:69:9f:ce:da:ca:
         90:70:d8:c0:c0:c3:86:65:d6:81:cc:bd:50:e9:9b:bb:5d:10:
         1e:13:d3:ee:a1:14:c4:c8:53:be:19:bd:f4:fa:7d:5b:81:ad:
         db:68:5d:1d:7d:e3:48:8f:9c:34:0f:72:6f:9f:b3:6a:09:5f:
         b1:a9:5d:10:37:4d:eb:a7:40:c8:ea:58:a4:65:42:b6:13:20:
         7b:cb:ae:17:89:32:60:06:cf:a3:83:6f:11:82:43:0a:cb:e6:
         82:e1:11:e9:09:98:29:e0:f3:4d:1b:07:87:48:ef:1a:37:8c:
         d7:05:05:9e:d5:ed:e4:7e:13:b1:5a:4f:6b:79:21:b8:a8:c4:
         38:75:35:43:1a:97:d9:5c:27:1d:81:0e:b9:98:7e:31:c8:ac:
         a3:a7:8c:6b:01:51:97:40:d3:96:f5:83:a5:d6:38:48:bd:56:
         ed:ff:07:8a:4e:de:de:f9:46:ec:ae:9f:85:08:7f:4b:cb:7a:
         4b:42:35:14:fd:fa:cd:f1:96:33:a3:0e:50:d0:2e:5f:02:b0:
         9c:04:66:96:0f:64:1c:27:31:50:27:4f:7a:82:71:b5:b9:cc:
         91:01:0d:d8
-----BEGIN CERTIFICATE-----
MIIEHjCCAwagAwIBAgIBAjANBgkqhkiG9w0BAQUFADBVMQswCQYDVQQGEwJGUjEW
MBQGA1UECAwNSWxlLWRlLUZyYW5jZTEOMAwGA1UEBwwFUGFyaXMxDzANBgNVBAoM
BklOVEVDSDENMAsGA1UEAwwEdGZ0ZjAeFw0xNzA2MTQxMzE3NThaFw0xODA2MTQx
MzE3NThaMFcxCzAJBgNVBAYTAkZSMRYwFAYDVQQIDA1JbGUtZGUtRnJhbmNlMQ4w
DAYDVQQHDAVQYXJpczEPMA0GA1UECgwGSU5URUNIMQ8wDQYDVQQDDAZ0aXV0aXUw
gZ8wDQYJKoZIhvcNAQEBBQADgY0AMIGJAoGBAONBrkiuiQbof8xrxciVk4l/qDep
OpDbFB0JyaRjH2TW4f4KML1KRbGdqEvz1dgzKN6tPXKzyfgP7bxAU26gCBofsaea
X1VDfutWiA3RyC5hkBnkqz3a452dbn+4AQ4XILw37XkTgEd5s5ZYXX2IQKFZdchz
0KjBFC1hYtrmuDanAgMBAAGjggF5MIIBdTAlBglghkgBhvhCAQ0EGBYWQ2VydGlm
aWNhdCBTZXJ2ZXVyIFNTTDAdBgNVHQ4EFgQUAvUApeX/mjz9xDqH1+xCqRZv+/ow
ga0GA1UdIwSBpTCBooAUurJD0m813mFHYRFMvJp420ytCLChgYakgYMwgYAxCzAJ
BgNVBAYTAkZSMRYwFAYDVQQIDA1JbGUtZGUtRnJhbmNlMQ4wDAYDVQQHDAVQYXJp
czEPMA0GA1UECgwGSU5URUNIMREwDwYDVQQDDAhyb290X2NiaTElMCMGCSqGSIb3
DQEJARYWcm9vdF9jYmlAY2FuYnJlYWtpdC5mcoIBDDAJBgNVHRIEAjAAMC8GA1Ud
EQQoMCaCEXd3dy5jYW5icmVha2l0LmZyghF3d3cuY2FuYnJlYWtpdC5mcjAMBgNV
HRMBAf8EAjAAMAsGA1UdDwQEAwIF4DARBglghkgBhvhCAQEEBAMCBkAwEwYDVR0l
BAwwCgYIKwYBBQUHAwEwDQYJKoZIhvcNAQEFBQADggEBAFDJB5twUEUb8+qRpfJa
Fwbe1lHW7oyFlDRBZcyXxdxpn87aypBw2MDAw4Zl1oHMvVDpm7tdEB4T0+6hFMTI
U74ZvfT6fVuBrdtoXR1940iPnDQPcm+fs2oJX7GpXRA3TeunQMjqWKRlQrYTIHvL
rheJMmAGz6ODbxGCQwrL5oLhEekJmCng800bB4dI7xo3jNcFBZ7V7eR+E7FaT2t5
IbioxDh1NUMal9lcJx2BDrmYfjHIrKOnjGsBUZdA05b1g6XWOEi9Vu3/B4pO3t75
Ruyun4UIf0vLektCNRT9+s3xljOjDlDQLl8CsJwEZpYPZBwnMVAnT3qCcbW5zJEB
Ddg=
-----END CERTIFICATE-----
