Certificate:
    Data:
        Version: 3 (0x2)
        Serial Number: 1 (0x1)
    Signature Algorithm: sha1WithRSAEncryption
        Issuer: C=FR, ST=Ile-de-France, L=Paris, O=INTECH, CN=tftf
        Validity
            Not Before: Jun 14 13:15:47 2017 GMT
            Not After : Jun 14 13:15:47 2018 GMT
        Subject: C=FR, ST=Ile-de-France, L=Paris, O=INTECH, CN=tuitui
        Subject Public Key Info:
            Public Key Algorithm: rsaEncryption
                Public-Key: (1024 bit)
                Modulus:
                    00:c9:8e:ea:1a:7f:3c:44:7d:06:a8:17:13:bd:bb:
                    ef:a4:ed:78:ad:1a:ab:75:aa:a1:90:73:7a:05:f9:
                    09:be:7c:35:18:a6:e9:13:21:a6:69:dd:e4:b6:34:
                    75:63:50:17:08:a7:80:f4:4e:57:43:d2:19:d7:f0:
                    c5:23:e3:00:53:fd:ee:af:c4:55:5b:7b:d8:34:c4:
                    c7:8f:42:cc:ba:a6:2e:72:24:cf:96:3f:2e:90:db:
                    e6:17:99:3b:d1:c7:64:62:aa:62:14:35:73:9f:55:
                    f1:cd:d8:cf:74:c8:88:09:db:b6:29:a0:54:e6:2f:
                    83:06:1b:bc:a8:8e:f0:ed:f7
                Exponent: 65537 (0x10001)
        X509v3 extensions:
            Netscape Comment: 
                Certificat Serveur SSL
            X509v3 Subject Key Identifier: 
                D1:C4:07:11:B3:19:EC:1C:3F:A1:F9:51:76:00:A3:EC:CF:90:2B:AD
            X509v3 Authority Key Identifier: 
                keyid:BA:B2:43:D2:6F:35:DE:61:47:61:11:4C:BC:9A:78:DB:4C:AD:08:B0
                DirName:/C=FR/ST=Ile-de-France/L=Paris/O=INTECH/CN=root_cbi/emailAddress=root_cbi@canbreakit.fr
                serial:0C

            X509v3 Issuer Alternative Name: 
                <EMPTY>

            X509v3 Subject Alternative Name: 
                DNS:www.canbreakit.fr, DNS:www.canbreakit.fr
            X509v3 Basic Constraints: critical
                CA:FALSE
            X509v3 Key Usage: 
                Digital Signature, Non Repudiation, Key Encipherment
            Netscape Cert Type: 
                SSL Server
            X509v3 Extended Key Usage: 
                TLS Web Server Authentication
    Signature Algorithm: sha1WithRSAEncryption
         27:59:6b:12:a4:7d:78:63:05:cd:5a:b4:03:ed:28:b6:ae:0c:
         6e:07:70:bd:c4:e0:7d:a3:13:26:8e:b5:c1:aa:a3:0c:ce:6d:
         c1:3c:aa:9a:36:be:cf:d1:83:81:6a:5e:fd:64:0f:50:22:56:
         9a:85:85:a3:b8:68:b9:50:8b:ad:3b:4f:dc:6c:ff:4f:dc:c3:
         11:93:2d:2e:a7:42:43:7e:e3:2f:3e:d5:1c:ba:fa:18:77:f7:
         b3:26:f4:cc:b4:e5:19:7b:a9:62:43:a2:21:1b:86:56:c1:e0:
         d8:bf:8d:72:31:b3:9d:b5:bd:91:56:67:08:50:4b:53:3f:d7:
         a3:cb:f7:8d:b3:98:6a:3f:37:af:6e:5b:55:f6:0a:d3:1c:6c:
         f9:74:9b:74:2b:b6:59:aa:de:4d:89:2c:e2:41:6e:c8:bc:1f:
         e9:04:b4:91:f7:a7:7d:af:a3:7c:b7:cd:27:09:3e:01:c4:2d:
         c1:1c:4c:e1:b1:5a:e3:07:5c:bb:a6:e0:a9:30:6e:bb:4e:d9:
         67:9d:e8:bd:4e:0a:28:14:3d:86:e1:40:26:71:a8:09:26:79:
         ec:67:2e:de:a1:d5:f8:88:05:be:fc:43:08:79:39:29:d4:59:
         77:0f:51:26:c6:34:d3:95:de:b6:38:d2:db:f9:68:ff:62:f8:
         3b:b2:94:ba
-----BEGIN CERTIFICATE-----
MIIEHjCCAwagAwIBAgIBATANBgkqhkiG9w0BAQUFADBVMQswCQYDVQQGEwJGUjEW
MBQGA1UECAwNSWxlLWRlLUZyYW5jZTEOMAwGA1UEBwwFUGFyaXMxDzANBgNVBAoM
BklOVEVDSDENMAsGA1UEAwwEdGZ0ZjAeFw0xNzA2MTQxMzE1NDdaFw0xODA2MTQx
MzE1NDdaMFcxCzAJBgNVBAYTAkZSMRYwFAYDVQQIDA1JbGUtZGUtRnJhbmNlMQ4w
DAYDVQQHDAVQYXJpczEPMA0GA1UECgwGSU5URUNIMQ8wDQYDVQQDDAZ0dWl0dWkw
gZ8wDQYJKoZIhvcNAQEBBQADgY0AMIGJAoGBAMmO6hp/PER9BqgXE72776TteK0a
q3WqoZBzegX5Cb58NRim6RMhpmnd5LY0dWNQFwingPROV0PSGdfwxSPjAFP97q/E
VVt72DTEx49CzLqmLnIkz5Y/LpDb5heZO9HHZGKqYhQ1c59V8c3Yz3TIiAnbtimg
VOYvgwYbvKiO8O33AgMBAAGjggF5MIIBdTAlBglghkgBhvhCAQ0EGBYWQ2VydGlm
aWNhdCBTZXJ2ZXVyIFNTTDAdBgNVHQ4EFgQU0cQHEbMZ7Bw/oflRdgCj7M+QK60w
ga0GA1UdIwSBpTCBooAUurJD0m813mFHYRFMvJp420ytCLChgYakgYMwgYAxCzAJ
BgNVBAYTAkZSMRYwFAYDVQQIDA1JbGUtZGUtRnJhbmNlMQ4wDAYDVQQHDAVQYXJp
czEPMA0GA1UECgwGSU5URUNIMREwDwYDVQQDDAhyb290X2NiaTElMCMGCSqGSIb3
DQEJARYWcm9vdF9jYmlAY2FuYnJlYWtpdC5mcoIBDDAJBgNVHRIEAjAAMC8GA1Ud
EQQoMCaCEXd3dy5jYW5icmVha2l0LmZyghF3d3cuY2FuYnJlYWtpdC5mcjAMBgNV
HRMBAf8EAjAAMAsGA1UdDwQEAwIF4DARBglghkgBhvhCAQEEBAMCBkAwEwYDVR0l
BAwwCgYIKwYBBQUHAwEwDQYJKoZIhvcNAQEFBQADggEBACdZaxKkfXhjBc1atAPt
KLauDG4HcL3E4H2jEyaOtcGqowzObcE8qpo2vs/Rg4FqXv1kD1AiVpqFhaO4aLlQ
i607T9xs/0/cwxGTLS6nQkN+4y8+1Ry6+hh397Mm9My05Rl7qWJDoiEbhlbB4Ni/
jXIxs521vZFWZwhQS1M/16PL942zmGo/N69uW1X2CtMcbPl0m3Qrtlmq3k2JLOJB
bsi8H+kEtJH3p32vo3y3zScJPgHELcEcTOGxWuMHXLum4KkwbrtO2Wed6L1OCigU
PYbhQCZxqAkmeexnLt6h1fiIBb78Qwh5OSnUWXcPUSbGNNOV3rY40tv5aP9i+Duy
lLo=
-----END CERTIFICATE-----
