Certificate:
    Data:
        Version: 3 (0x2)
        Serial Number: 1 (0x1)
    Signature Algorithm: sha1WithRSAEncryption
        Issuer: C=FR, ST=Ile-de-France, L=Paris, O=INTECH, CN=tltltl
        Validity
            Not Before: Jun 14 09:17:31 2017 GMT
            Not After : Jun 14 09:17:31 2018 GMT
        Subject: C=FR, ST=Ile-de-France, L=Paris, O=INTECH, CN=trtrtr/emailAddress=trtrtr
        Subject Public Key Info:
            Public Key Algorithm: rsaEncryption
                Public-Key: (1024 bit)
                Modulus:
                    00:cd:00:4e:73:69:5a:c4:40:57:09:3b:83:93:92:
                    3c:49:39:41:ed:ac:12:d0:da:bc:7a:c6:51:89:7a:
                    1d:c4:d1:92:ba:f2:c3:8c:89:e1:ed:0d:21:1c:7a:
                    a0:a6:aa:66:a5:7c:61:94:80:ec:a5:ba:cb:df:6e:
                    c6:ae:74:97:e9:9d:0a:57:34:4a:41:1f:47:b6:c7:
                    0c:1c:3b:60:21:39:cc:f9:fd:66:3b:86:14:a3:9a:
                    75:ad:3c:9f:79:9e:92:0a:aa:a9:cb:9a:b9:42:3e:
                    36:94:cc:00:f0:13:e6:e1:10:cb:1e:ae:e9:2c:df:
                    d6:2a:10:5e:6d:db:77:6a:41
                Exponent: 65537 (0x10001)
        X509v3 extensions:
            Netscape Comment: 
                Certificat Serveur SSL
            X509v3 Subject Key Identifier: 
                C6:4B:86:E2:EB:F4:2F:0E:23:51:B6:F5:53:35:9E:FA:5E:13:A2:5F
            X509v3 Authority Key Identifier: 
                keyid:88:CD:15:F0:D0:8F:8F:51:B2:90:2E:66:DB:E3:1C:DB:5C:38:5D:D9
                DirName:/C=FR/ST=Ile-de-France/L=Paris/O=INTECH/CN=root_cbi/emailAddress=root_cbi@canbreakit.fr
                serial:0A

            X509v3 Issuer Alternative Name: 
                <EMPTY>

            X509v3 Subject Alternative Name: 
                DNS:www.canbreakit.fr, DNS:www.canbreakit.fr
            X509v3 Basic Constraints: critical
                CA:FALSE
            X509v3 Key Usage: 
                Digital Signature, Non Repudiation, Key Encipherment
            Netscape Cert Type: 
                SSL Server
            X509v3 Extended Key Usage: 
                TLS Web Server Authentication
    Signature Algorithm: sha1WithRSAEncryption
         c5:73:c1:cf:3c:5b:f9:ff:72:48:98:27:6f:10:65:fa:06:dd:
         c8:38:2f:17:37:52:6a:d4:c4:fd:88:5a:56:6e:15:db:56:c9:
         50:28:a2:c8:8d:f2:46:01:e1:a2:c8:53:98:b5:54:f9:80:27:
         e3:7b:ac:a5:fc:1c:94:20:c0:30:57:ff:d8:31:31:ed:0d:4d:
         52:a7:81:04:d3:10:7d:2c:54:60:84:b5:94:40:9c:3f:1b:b2:
         60:df:fc:6b:b3:73:37:66:a9:4a:25:48:3a:ba:77:5d:db:9f:
         e1:6f:bb:08:d3:89:7e:0f:20:ea:ea:55:e7:c0:0d:fa:12:75:
         8d:ca:27:e2:01:a4:3c:f8:c9:20:3d:e9:92:c2:0d:4e:9c:0d:
         cd:f6:2e:09:f6:6d:a2:43:9f:83:8f:1c:05:db:84:96:22:1b:
         c5:66:d1:a7:6b:e8:6d:1f:55:12:77:08:08:65:00:53:77:d8:
         81:00:ef:6a:72:a7:eb:fc:4c:31:bb:cc:19:9b:2f:a5:13:df:
         ed:18:11:96:96:2e:f2:42:51:c4:9a:1a:de:dc:69:a9:b2:bd:
         54:86:a7:6a:7e:b8:cb:c9:f8:40:2c:30:60:fb:04:e9:04:94:
         16:e1:a5:ba:09:d6:6f:69:d5:12:16:df:d0:b5:1d:c1:a7:e3:
         e8:32:4b:ed
-----BEGIN CERTIFICATE-----
MIIENzCCAx+gAwIBAgIBATANBgkqhkiG9w0BAQUFADBXMQswCQYDVQQGEwJGUjEW
MBQGA1UECAwNSWxlLWRlLUZyYW5jZTEOMAwGA1UEBwwFUGFyaXMxDzANBgNVBAoM
BklOVEVDSDEPMA0GA1UEAwwGdGx0bHRsMB4XDTE3MDYxNDA5MTczMVoXDTE4MDYx
NDA5MTczMVowbjELMAkGA1UEBhMCRlIxFjAUBgNVBAgMDUlsZS1kZS1GcmFuY2Ux
DjAMBgNVBAcMBVBhcmlzMQ8wDQYDVQQKDAZJTlRFQ0gxDzANBgNVBAMMBnRydHJ0
cjEVMBMGCSqGSIb3DQEJARYGdHJ0cnRyMIGfMA0GCSqGSIb3DQEBAQUAA4GNADCB
iQKBgQDNAE5zaVrEQFcJO4OTkjxJOUHtrBLQ2rx6xlGJeh3E0ZK68sOMieHtDSEc
eqCmqmalfGGUgOylusvfbsaudJfpnQpXNEpBH0e2xwwcO2AhOcz5/WY7hhSjmnWt
PJ95npIKqqnLmrlCPjaUzADwE+bhEMseruks39YqEF5t23dqQQIDAQABo4IBeTCC
AXUwJQYJYIZIAYb4QgENBBgWFkNlcnRpZmljYXQgU2VydmV1ciBTU0wwHQYDVR0O
BBYEFMZLhuLr9C8OI1G29VM1nvpeE6JfMIGtBgNVHSMEgaUwgaKAFIjNFfDQj49R
spAuZtvjHNtcOF3ZoYGGpIGDMIGAMQswCQYDVQQGEwJGUjEWMBQGA1UECAwNSWxl
LWRlLUZyYW5jZTEOMAwGA1UEBwwFUGFyaXMxDzANBgNVBAoMBklOVEVDSDERMA8G
A1UEAwwIcm9vdF9jYmkxJTAjBgkqhkiG9w0BCQEWFnJvb3RfY2JpQGNhbmJyZWFr
aXQuZnKCAQowCQYDVR0SBAIwADAvBgNVHREEKDAmghF3d3cuY2FuYnJlYWtpdC5m
coIRd3d3LmNhbmJyZWFraXQuZnIwDAYDVR0TAQH/BAIwADALBgNVHQ8EBAMCBeAw
EQYJYIZIAYb4QgEBBAQDAgZAMBMGA1UdJQQMMAoGCCsGAQUFBwMBMA0GCSqGSIb3
DQEBBQUAA4IBAQDFc8HPPFv5/3JImCdvEGX6Bt3IOC8XN1Jq1MT9iFpWbhXbVslQ
KKLIjfJGAeGiyFOYtVT5gCfje6yl/ByUIMAwV//YMTHtDU1Sp4EE0xB9LFRghLWU
QJw/G7Jg3/xrs3M3ZqlKJUg6undd25/hb7sI04l+DyDq6lXnwA36EnWNyifiAaQ8
+MkgPemSwg1OnA3N9i4J9m2iQ5+DjxwF24SWIhvFZtGna+htH1USdwgIZQBTd9iB
AO9qcqfr/Ewxu8wZmy+lE9/tGBGWli7yQlHEmhre3Gmpsr1UhqdqfrjLyfhALDBg
+wTpBJQW4aW6CdZvadUSFt/QtR3Bp+PoMkvt
-----END CERTIFICATE-----
