Certificate:
    Data:
        Version: 3 (0x2)
        Serial Number: 3 (0x3)
    Signature Algorithm: sha1WithRSAEncryption
        Issuer: C=FR, ST=Ile-de-France, L=Paris, O=INTECH, CN=tftf
        Validity
            Not Before: Jun 14 13:38:30 2017 GMT
            Not After : Jun 14 13:38:30 2018 GMT
        Subject: C=FR, ST=Ile-de-France, L=Paris, O=INTECH, CN=twtw
        Subject Public Key Info:
            Public Key Algorithm: rsaEncryption
                Public-Key: (1024 bit)
                Modulus:
                    00:dd:08:aa:24:be:ba:0d:dd:7d:db:16:43:57:9a:
                    6f:e6:79:ca:a2:6b:42:58:44:3d:23:c1:c0:4c:78:
                    01:29:97:37:59:ff:c2:cf:48:87:63:11:08:d0:7f:
                    ae:1a:13:8d:3c:25:8e:07:41:d7:20:6f:52:e5:5c:
                    e0:97:88:36:23:16:13:f8:53:b4:db:3c:af:68:01:
                    b5:e7:6d:00:a2:89:eb:a2:74:b5:2f:61:3c:91:19:
                    b3:c1:c0:85:58:76:06:c9:dd:3a:c9:be:3a:95:f3:
                    f0:a6:39:58:81:b0:db:23:ce:a4:9c:1b:b8:68:2c:
                    83:9c:17:cd:f8:e0:42:d1:cb
                Exponent: 65537 (0x10001)
        X509v3 extensions:
            Netscape Comment: 
                Certificat Serveur SSL
            X509v3 Subject Key Identifier: 
                FD:F4:8D:DA:10:7B:96:E6:A0:31:EC:4A:2A:33:24:B5:BD:A7:8C:0A
            X509v3 Authority Key Identifier: 
                keyid:BA:B2:43:D2:6F:35:DE:61:47:61:11:4C:BC:9A:78:DB:4C:AD:08:B0
                DirName:/C=FR/ST=Ile-de-France/L=Paris/O=INTECH/CN=root_cbi/emailAddress=root_cbi@canbreakit.fr
                serial:0C

            X509v3 Issuer Alternative Name: 
                <EMPTY>

            X509v3 Subject Alternative Name: 
                DNS:www.canbreakit.fr, DNS:www.canbreakit.fr
            X509v3 Basic Constraints: critical
                CA:FALSE
            X509v3 Key Usage: 
                Digital Signature, Non Repudiation, Key Encipherment
            Netscape Cert Type: 
                SSL Server
            X509v3 Extended Key Usage: 
                TLS Web Server Authentication
    Signature Algorithm: sha1WithRSAEncryption
         79:c7:cf:36:4c:60:2c:0e:44:3a:b6:1e:2c:dd:00:ab:8d:49:
         35:8e:f7:cb:ef:96:b9:e3:87:42:5e:ca:bc:68:a7:32:df:bd:
         19:7a:cd:91:18:01:94:cd:5c:4c:16:11:fc:ac:65:c3:ff:36:
         9a:80:2b:8e:3b:2e:bd:2d:6e:c6:c5:e5:99:e7:7c:b6:f8:1e:
         8d:b6:b2:8f:b1:1c:07:50:ae:5a:e8:53:90:7f:e9:59:ff:58:
         5c:41:df:f3:a1:4c:d8:7b:16:50:3b:26:de:59:e9:ae:e6:c9:
         da:09:87:9b:5c:47:a4:5b:ce:c3:7b:80:ad:4e:5d:2b:0e:58:
         df:11:28:cd:b0:26:81:d5:73:17:3c:d1:a9:e7:c7:f6:25:d5:
         cb:ab:80:26:94:67:35:fe:8f:77:5a:d6:82:b7:8f:ec:1b:f6:
         e1:9d:bb:22:94:47:f2:60:14:8d:1c:6a:39:53:39:0f:5d:a3:
         20:2e:bb:76:d8:aa:b3:7f:8a:7d:d6:4e:fe:b5:b2:11:7d:e7:
         8b:99:dd:9a:ff:56:82:ab:3e:df:b4:e1:72:d0:43:34:e4:56:
         89:ce:ad:b8:d0:53:d1:1b:60:d3:9a:41:c9:60:da:d2:a6:c6:
         12:f0:de:b4:5a:46:10:b7:f4:14:da:1c:c8:91:f9:81:3c:60:
         7d:9c:98:4d
-----BEGIN CERTIFICATE-----
MIIEHDCCAwSgAwIBAgIBAzANBgkqhkiG9w0BAQUFADBVMQswCQYDVQQGEwJGUjEW
MBQGA1UECAwNSWxlLWRlLUZyYW5jZTEOMAwGA1UEBwwFUGFyaXMxDzANBgNVBAoM
BklOVEVDSDENMAsGA1UEAwwEdGZ0ZjAeFw0xNzA2MTQxMzM4MzBaFw0xODA2MTQx
MzM4MzBaMFUxCzAJBgNVBAYTAkZSMRYwFAYDVQQIDA1JbGUtZGUtRnJhbmNlMQ4w
DAYDVQQHDAVQYXJpczEPMA0GA1UECgwGSU5URUNIMQ0wCwYDVQQDDAR0d3R3MIGf
MA0GCSqGSIb3DQEBAQUAA4GNADCBiQKBgQDdCKokvroN3X3bFkNXmm/mecqia0JY
RD0jwcBMeAEplzdZ/8LPSIdjEQjQf64aE408JY4HQdcgb1LlXOCXiDYjFhP4U7Tb
PK9oAbXnbQCiieuidLUvYTyRGbPBwIVYdgbJ3TrJvjqV8/CmOViBsNsjzqScG7ho
LIOcF8344ELRywIDAQABo4IBeTCCAXUwJQYJYIZIAYb4QgENBBgWFkNlcnRpZmlj
YXQgU2VydmV1ciBTU0wwHQYDVR0OBBYEFP30jdoQe5bmoDHsSiozJLW9p4wKMIGt
BgNVHSMEgaUwgaKAFLqyQ9JvNd5hR2ERTLyaeNtMrQiwoYGGpIGDMIGAMQswCQYD
VQQGEwJGUjEWMBQGA1UECAwNSWxlLWRlLUZyYW5jZTEOMAwGA1UEBwwFUGFyaXMx
DzANBgNVBAoMBklOVEVDSDERMA8GA1UEAwwIcm9vdF9jYmkxJTAjBgkqhkiG9w0B
CQEWFnJvb3RfY2JpQGNhbmJyZWFraXQuZnKCAQwwCQYDVR0SBAIwADAvBgNVHREE
KDAmghF3d3cuY2FuYnJlYWtpdC5mcoIRd3d3LmNhbmJyZWFraXQuZnIwDAYDVR0T
AQH/BAIwADALBgNVHQ8EBAMCBeAwEQYJYIZIAYb4QgEBBAQDAgZAMBMGA1UdJQQM
MAoGCCsGAQUFBwMBMA0GCSqGSIb3DQEBBQUAA4IBAQB5x882TGAsDkQ6th4s3QCr
jUk1jvfL75a544dCXsq8aKcy370Zes2RGAGUzVxMFhH8rGXD/zaagCuOOy69LW7G
xeWZ53y2+B6NtrKPsRwHUK5a6FOQf+lZ/1hcQd/zoUzYexZQOybeWemu5snaCYeb
XEekW87De4CtTl0rDljfESjNsCaB1XMXPNGp58f2JdXLq4AmlGc1/o93WtaCt4/s
G/bhnbsilEfyYBSNHGo5UzkPXaMgLrt22Kqzf4p91k7+tbIRfeeLmd2a/1aCqz7f
tOFy0EM05FaJzq240FPRG2DTmkHJYNrSpsYS8N60WkYQt/QU2hzIkfmBPGB9nJhN
-----END CERTIFICATE-----
