Certificate:
    Data:
        Version: 3 (0x2)
        Serial Number: 4 (0x4)
    Signature Algorithm: sha1WithRSAEncryption
        Issuer: C=FR, ST=Ile-de-France, L=Paris, O=INTECH, CN=tftf
        Validity
            Not Before: Jun 14 13:53:47 2017 GMT
            Not After : Jun 14 13:53:47 2018 GMT
        Subject: C=FR, ST=Ile-de-France, L=Paris, O=INTECH, CN=tjtj
        Subject Public Key Info:
            Public Key Algorithm: rsaEncryption
                Public-Key: (1024 bit)
                Modulus:
                    00:a7:75:b2:da:ac:22:94:9d:b5:47:91:bf:41:31:
                    e8:e8:8d:75:a9:ac:9b:e1:d7:8e:34:a3:50:a1:0c:
                    18:05:6c:f5:00:4f:10:91:a9:2f:20:c0:21:c4:32:
                    fb:1f:f7:b6:1d:26:50:74:1e:68:86:dc:80:5e:3d:
                    4d:d3:73:27:70:6a:c5:74:ad:5b:b3:c0:cd:25:c5:
                    38:cc:4a:60:2b:bc:f2:b9:0b:75:f2:5b:16:a6:cf:
                    b9:0b:e1:15:82:3c:ed:b5:9a:b0:f0:4a:62:ae:2a:
                    d9:cc:98:ca:f2:23:25:1a:3c:b8:72:7b:48:59:0f:
                    ec:b0:a3:e9:07:a8:1b:a6:fd
                Exponent: 65537 (0x10001)
        X509v3 extensions:
            Netscape Comment: 
                Certificat Client SSL
            X509v3 Subject Key Identifier: 
                C8:49:A0:35:01:19:85:92:AD:62:6B:C7:B8:56:71:CB:EB:3E:29:3E
            X509v3 Authority Key Identifier: 
                keyid:BA:B2:43:D2:6F:35:DE:61:47:61:11:4C:BC:9A:78:DB:4C:AD:08:B0
                DirName:/C=FR/ST=Ile-de-France/L=Paris/O=INTECH/CN=root_cbi/emailAddress=root_cbi@canbreakit.fr
                serial:0C

            X509v3 Issuer Alternative Name: 
                <EMPTY>

            X509v3 Subject Alternative Name: critical
                email:ubuntu@canbreakit.fr
            X509v3 Basic Constraints: critical
                CA:FALSE
            X509v3 Key Usage: 
                Digital Signature, Non Repudiation
            Netscape Cert Type: 
                SSL Client
            X509v3 Extended Key Usage: 
                TLS Web Client Authentication
    Signature Algorithm: sha1WithRSAEncryption
         44:0a:a2:9f:38:33:4d:67:68:a0:10:dc:f0:bb:30:bd:a3:16:
         78:fc:c1:71:f9:1b:41:79:9d:56:3c:9d:cb:27:1a:23:24:00:
         fe:b5:b1:42:f0:40:35:5c:1b:22:72:2b:b5:f0:d6:f3:70:45:
         ec:de:a1:99:1b:76:f2:be:86:d7:0e:d8:05:b0:08:38:90:53:
         4b:a7:93:3c:0e:60:9c:2f:8d:26:08:56:5b:f5:98:85:d4:9e:
         99:6f:35:71:2e:72:1a:e1:cd:bf:78:bc:1f:8a:62:97:96:67:
         49:0b:9a:e4:5e:6d:58:7e:8f:78:e7:e8:a8:fa:b7:cb:8d:ae:
         1a:09:1f:b3:d1:19:c4:0b:d9:be:31:6e:fb:71:c8:ce:34:eb:
         97:38:fe:55:48:46:fe:87:2a:22:ac:f5:9b:04:2b:8b:08:b9:
         15:d5:7b:2b:d0:6d:ce:75:58:c6:c2:fb:62:cc:0a:2e:27:e6:
         8f:da:ae:64:84:38:e5:54:bc:99:09:97:bd:9c:f2:0e:0c:56:
         3e:2b:57:8d:24:15:4d:30:6f:b0:d5:e9:55:2f:91:73:3d:66:
         f7:3d:dd:de:01:42:4c:72:a0:08:93:5f:c3:2e:e4:47:67:b8:
         10:91:40:6b:5d:4a:d2:64:82:fb:c0:47:f7:59:f4:e2:ee:c6:
         31:09:15:b1
-----BEGIN CERTIFICATE-----
MIIEDjCCAvagAwIBAgIBBDANBgkqhkiG9w0BAQUFADBVMQswCQYDVQQGEwJGUjEW
MBQGA1UECAwNSWxlLWRlLUZyYW5jZTEOMAwGA1UEBwwFUGFyaXMxDzANBgNVBAoM
BklOVEVDSDENMAsGA1UEAwwEdGZ0ZjAeFw0xNzA2MTQxMzUzNDdaFw0xODA2MTQx
MzUzNDdaMFUxCzAJBgNVBAYTAkZSMRYwFAYDVQQIDA1JbGUtZGUtRnJhbmNlMQ4w
DAYDVQQHDAVQYXJpczEPMA0GA1UECgwGSU5URUNIMQ0wCwYDVQQDDAR0anRqMIGf
MA0GCSqGSIb3DQEBAQUAA4GNADCBiQKBgQCndbLarCKUnbVHkb9BMejojXWprJvh
1440o1ChDBgFbPUATxCRqS8gwCHEMvsf97YdJlB0HmiG3IBePU3TcydwasV0rVuz
wM0lxTjMSmArvPK5C3XyWxamz7kL4RWCPO21mrDwSmKuKtnMmMryIyUaPLhye0hZ
D+ywo+kHqBum/QIDAQABo4IBazCCAWcwJAYJYIZIAYb4QgENBBcWFUNlcnRpZmlj
YXQgQ2xpZW50IFNTTDAdBgNVHQ4EFgQUyEmgNQEZhZKtYmvHuFZxy+s+KT4wga0G
A1UdIwSBpTCBooAUurJD0m813mFHYRFMvJp420ytCLChgYakgYMwgYAxCzAJBgNV
BAYTAkZSMRYwFAYDVQQIDA1JbGUtZGUtRnJhbmNlMQ4wDAYDVQQHDAVQYXJpczEP
MA0GA1UECgwGSU5URUNIMREwDwYDVQQDDAhyb290X2NiaTElMCMGCSqGSIb3DQEJ
ARYWcm9vdF9jYmlAY2FuYnJlYWtpdC5mcoIBDDAJBgNVHRIEAjAAMCIGA1UdEQEB
/wQYMBaBFHVidW50dUBjYW5icmVha2l0LmZyMAwGA1UdEwEB/wQCMAAwCwYDVR0P
BAQDAgbAMBEGCWCGSAGG+EIBAQQEAwIHgDATBgNVHSUEDDAKBggrBgEFBQcDAjAN
BgkqhkiG9w0BAQUFAAOCAQEARAqinzgzTWdooBDc8LswvaMWePzBcfkbQXmdVjyd
yycaIyQA/rWxQvBANVwbInIrtfDW83BF7N6hmRt28r6G1w7YBbAIOJBTS6eTPA5g
nC+NJghWW/WYhdSemW81cS5yGuHNv3i8H4pil5ZnSQua5F5tWH6PeOfoqPq3y42u
Ggkfs9EZxAvZvjFu+3HIzjTrlzj+VUhG/ocqIqz1mwQriwi5FdV7K9BtznVYxsL7
YswKLifmj9quZIQ45VS8mQmXvZzyDgxWPitXjSQVTTBvsNXpVS+Rcz1m9z3d3gFC
THKgCJNfwy7kR2e4EJFAa11K0mSC+8BH91n04u7GMQkVsQ==
-----END CERTIFICATE-----
