Certificate:
    Data:
        Version: 3 (0x2)
        Serial Number: 1 (0x1)
    Signature Algorithm: sha1WithRSAEncryption
        Issuer: C=FR, ST=Ile-de-France, L=Paris, O=INTECH, CN=root_cbi_g2/emailAddress=root_cbi_g2@canbreakit.fr
        Validity
            Not Before: Jun 13 17:19:20 2017 GMT
            Not After : Jun 13 17:19:20 2018 GMT
        Subject: C=FR, ST=Ile-de-France, L=Paris, O=INTECH, CN=www.canbreakit.fr/emailAddress=canbreakit@canbreakit.fr
        Subject Public Key Info:
            Public Key Algorithm: rsaEncryption
                Public-Key: (1024 bit)
                Modulus:
                    00:d2:2a:70:bb:e0:c2:0b:7e:78:36:d2:e7:dc:32:
                    5a:3f:85:bb:ce:3f:50:ad:e1:26:58:48:7b:be:81:
                    f5:f7:b8:01:7e:2d:65:d6:ff:d4:4e:b7:e4:2c:98:
                    dc:d9:2a:af:67:0d:b1:82:74:ac:0d:b9:8c:8e:62:
                    5b:38:a0:5e:e7:d1:4a:25:73:ba:db:e7:d0:20:04:
                    5b:e1:ae:c6:8e:22:34:dc:a6:8e:7a:68:62:34:6a:
                    33:82:b7:97:14:b9:2b:f8:77:f0:42:0a:cc:dc:c8:
                    dc:ae:af:4f:eb:27:c0:24:45:12:8c:fc:29:81:f8:
                    f9:14:ab:2b:59:2b:4e:e2:b9
                Exponent: 65537 (0x10001)
        X509v3 extensions:
            Netscape Comment: 
                Certificat Serveur SSL
            X509v3 Subject Key Identifier: 
                DF:9F:2B:D1:5D:F6:42:F9:94:2A:AF:13:DF:89:CD:8D:5B:B5:42:3C
            X509v3 Authority Key Identifier: 
                keyid:DE:40:C4:7A:DB:E5:8D:A1:18:49:7E:64:16:9C:51:AE:06:4D:12:94
                DirName:/C=FR/ST=Ile-de-France/L=Paris/O=INTECH/CN=root_cbi/emailAddress=root_cbi@canbreakit.fr
                serial:01

            X509v3 Issuer Alternative Name: 
                <EMPTY>

            X509v3 Subject Alternative Name: 
                DNS:www.canbreakit.fr, DNS:www.canbreakit.fr
            X509v3 Basic Constraints: critical
                CA:FALSE
            X509v3 Key Usage: 
                Digital Signature, Non Repudiation, Key Encipherment
            Netscape Cert Type: 
                SSL Server
            X509v3 Extended Key Usage: 
                TLS Web Server Authentication
    Signature Algorithm: sha1WithRSAEncryption
         7f:93:bd:50:5f:42:f2:bd:20:8e:ac:7e:eb:f3:90:dc:4a:81:
         15:50:23:cc:b6:b5:5d:3f:45:7f:31:a6:75:c9:3a:7f:1e:1b:
         9a:be:bf:47:69:93:df:88:62:93:9b:40:13:88:9d:2d:06:80:
         c9:ca:81:65:c0:c0:5c:72:67:c2:c4:4a:0b:7d:f1:b4:bb:ba:
         95:92:3d:78:09:42:24:eb:6a:0d:84:0b:01:61:13:62:72:e5:
         c9:b0:ee:5c:65:7f:ce:e5:5e:74:75:aa:f9:74:86:e0:8e:6c:
         e8:0e:ed:8d:25:40:78:3c:74:10:53:ec:14:03:6b:1a:dc:ba:
         b4:18:b2:bf:17:fd:fe:8d:69:3d:a5:20:b8:5b:6c:73:3b:7d:
         61:1f:57:18:f7:9e:17:be:00:dc:e6:38:aa:31:f4:84:08:c3:
         fa:6c:b5:b9:bf:30:ec:54:f7:63:2a:d5:2d:3a:7e:a3:0d:1f:
         9e:53:3c:df:57:64:42:18:75:c2:0b:1b:36:fe:ca:38:01:48:
         42:f9:8d:85:2f:69:07:27:14:29:c0:07:8f:b7:41:68:96:e1:
         20:c0:7c:24:c8:2b:1c:38:c3:6f:d2:2e:c7:cd:4c:3d:4d:11:
         a3:ae:f3:d0:1b:5d:aa:b2:34:54:95:52:1a:51:c3:16:55:2d:
         7f:74:9f:94
-----BEGIN CERTIFICATE-----
MIIEhTCCA22gAwIBAgIBATANBgkqhkiG9w0BAQUFADCBhjELMAkGA1UEBhMCRlIx
FjAUBgNVBAgMDUlsZS1kZS1GcmFuY2UxDjAMBgNVBAcMBVBhcmlzMQ8wDQYDVQQK
DAZJTlRFQ0gxFDASBgNVBAMMC3Jvb3RfY2JpX2cyMSgwJgYJKoZIhvcNAQkBFhly
b290X2NiaV9nMkBjYW5icmVha2l0LmZyMB4XDTE3MDYxMzE3MTkyMFoXDTE4MDYx
MzE3MTkyMFowgYsxCzAJBgNVBAYTAkZSMRYwFAYDVQQIDA1JbGUtZGUtRnJhbmNl
MQ4wDAYDVQQHDAVQYXJpczEPMA0GA1UECgwGSU5URUNIMRowGAYDVQQDDBF3d3cu
Y2FuYnJlYWtpdC5mcjEnMCUGCSqGSIb3DQEJARYYY2FuYnJlYWtpdEBjYW5icmVh
a2l0LmZyMIGfMA0GCSqGSIb3DQEBAQUAA4GNADCBiQKBgQDSKnC74MILfng20ufc
Mlo/hbvOP1Ct4SZYSHu+gfX3uAF+LWXW/9ROt+QsmNzZKq9nDbGCdKwNuYyOYls4
oF7n0Uolc7rb59AgBFvhrsaOIjTcpo56aGI0ajOCt5cUuSv4d/BCCszcyNyur0/r
J8AkRRKM/CmB+PkUqytZK07iuQIDAQABo4IBeTCCAXUwJQYJYIZIAYb4QgENBBgW
FkNlcnRpZmljYXQgU2VydmV1ciBTU0wwHQYDVR0OBBYEFN+fK9Fd9kL5lCqvE9+J
zY1btUI8MIGtBgNVHSMEgaUwgaKAFN5AxHrb5Y2hGEl+ZBacUa4GTRKUoYGGpIGD
MIGAMQswCQYDVQQGEwJGUjEWMBQGA1UECAwNSWxlLWRlLUZyYW5jZTEOMAwGA1UE
BwwFUGFyaXMxDzANBgNVBAoMBklOVEVDSDERMA8GA1UEAwwIcm9vdF9jYmkxJTAj
BgkqhkiG9w0BCQEWFnJvb3RfY2JpQGNhbmJyZWFraXQuZnKCAQEwCQYDVR0SBAIw
ADAvBgNVHREEKDAmghF3d3cuY2FuYnJlYWtpdC5mcoIRd3d3LmNhbmJyZWFraXQu
ZnIwDAYDVR0TAQH/BAIwADALBgNVHQ8EBAMCBeAwEQYJYIZIAYb4QgEBBAQDAgZA
MBMGA1UdJQQMMAoGCCsGAQUFBwMBMA0GCSqGSIb3DQEBBQUAA4IBAQB/k71QX0Ly
vSCOrH7r85DcSoEVUCPMtrVdP0V/MaZ1yTp/Hhuavr9HaZPfiGKTm0ATiJ0tBoDJ
yoFlwMBccmfCxEoLffG0u7qVkj14CUIk62oNhAsBYRNicuXJsO5cZX/O5V50dar5
dIbgjmzoDu2NJUB4PHQQU+wUA2sa3Lq0GLK/F/3+jWk9pSC4W2xzO31hH1cY954X
vgDc5jiqMfSECMP6bLW5vzDsVPdjKtUtOn6jDR+eUzzfV2RCGHXCCxs2/so4AUhC
+Y2FL2kHJxQpwAePt0FoluEgwHwkyCscOMNv0i7HzUw9TRGjrvPQG12qsjRUlVIa
UcMWVS1/dJ+U
-----END CERTIFICATE-----
