Certificate:
    Data:
        Version: 3 (0x2)
        Serial Number: 2 (0x2)
    Signature Algorithm: sha1WithRSAEncryption
        Issuer: C=FR, ST=Ile-de-France, L=Paris, O=INTECH, CN=root_cbi_g2/emailAddress=root_cbi_g2@canbreakit.fr
        Validity
            Not Before: Jun 13 17:22:59 2017 GMT
            Not After : Jun 13 17:22:59 2018 GMT
        Subject: C=FR, ST=Ile-de-France, L=Paris, O=INTECH, CN=ubuntu/emailAddress=ubuntu@canbreakit.fr
        Subject Public Key Info:
            Public Key Algorithm: rsaEncryption
                Public-Key: (1024 bit)
                Modulus:
                    00:a5:69:54:d1:cd:37:8f:80:e5:45:d9:0f:98:07:
                    4f:ab:73:ae:61:5c:62:9e:09:1c:6f:71:97:df:33:
                    66:a6:71:39:52:74:1e:e1:3a:b7:43:8a:c3:66:f1:
                    8f:b9:6a:b4:49:38:56:85:93:d3:ab:33:96:f9:51:
                    b1:73:7d:f5:80:6d:f2:c3:f3:15:6d:69:1b:16:f2:
                    a8:11:f8:04:3e:0c:59:5c:4f:83:22:9a:3c:92:87:
                    42:d7:18:a3:50:f7:0f:2a:a9:27:c4:3b:d6:eb:bb:
                    9f:d8:60:88:3b:b6:27:0e:1c:a3:6a:86:5a:8d:0d:
                    9d:e5:1b:0f:7f:ed:7f:d8:1d
                Exponent: 65537 (0x10001)
        X509v3 extensions:
            Netscape Comment: 
                Certificat Client SSL
            X509v3 Subject Key Identifier: 
                45:40:A2:9F:E1:01:B9:5C:04:2D:24:41:C1:D2:99:19:D1:6F:FD:D4
            X509v3 Authority Key Identifier: 
                keyid:DE:40:C4:7A:DB:E5:8D:A1:18:49:7E:64:16:9C:51:AE:06:4D:12:94
                DirName:/C=FR/ST=Ile-de-France/L=Paris/O=INTECH/CN=root_cbi/emailAddress=root_cbi@canbreakit.fr
                serial:01

            X509v3 Issuer Alternative Name: 
                <EMPTY>

            X509v3 Subject Alternative Name: critical
                email:ubuntu@canbreakit.fr, email:ubuntu@canbreakit.fr
            X509v3 Basic Constraints: critical
                CA:FALSE
            X509v3 Key Usage: 
                Digital Signature, Non Repudiation
            Netscape Cert Type: 
                SSL Client
            X509v3 Extended Key Usage: 
                TLS Web Client Authentication
    Signature Algorithm: sha1WithRSAEncryption
         4b:7b:02:3c:e6:b0:1c:6f:4e:ee:2b:4e:df:3c:3b:e9:6c:b6:
         b1:fb:77:61:f7:3e:94:17:2a:1d:41:01:c2:35:8d:f4:02:da:
         be:27:8b:55:9f:b4:37:f2:26:60:0f:9f:08:93:b0:5e:57:77:
         a2:1e:47:0e:0d:be:14:3b:5e:ec:b0:85:6c:f0:9c:80:05:47:
         9a:17:37:6f:ab:80:46:ef:ac:a7:8c:ac:5e:64:8e:c4:32:8e:
         50:a5:5f:27:c4:06:5a:38:f2:19:2b:4c:01:4a:5f:49:94:6b:
         d2:e0:13:3d:5f:73:04:74:70:2c:62:f5:17:d4:de:89:cc:47:
         fe:87:b6:b1:f2:73:04:4f:49:ff:b9:10:9d:92:1c:86:78:6e:
         e1:72:8c:a9:42:66:f8:ce:72:df:1d:e4:ce:82:b8:d3:e0:58:
         99:55:28:0d:b5:f9:e0:6a:37:ed:9c:1e:53:6d:c8:9e:a7:89:
         41:8a:4d:54:54:8b:bc:4f:8f:88:0c:56:be:f7:d6:6b:70:17:
         90:9b:0e:3e:c4:5e:40:6a:e9:8d:3a:48:97:19:4d:e6:70:26:
         36:11:a7:07:95:99:18:76:16:ce:e5:be:33:58:48:ab:14:b8:
         1b:77:63:7d:72:ae:cf:79:42:5c:3a:51:d2:fd:f5:23:64:fa:
         a7:b8:5d:6c
-----BEGIN CERTIFICATE-----
MIIEfTCCA2WgAwIBAgIBAjANBgkqhkiG9w0BAQUFADCBhjELMAkGA1UEBhMCRlIx
FjAUBgNVBAgMDUlsZS1kZS1GcmFuY2UxDjAMBgNVBAcMBVBhcmlzMQ8wDQYDVQQK
DAZJTlRFQ0gxFDASBgNVBAMMC3Jvb3RfY2JpX2cyMSgwJgYJKoZIhvcNAQkBFhly
b290X2NiaV9nMkBjYW5icmVha2l0LmZyMB4XDTE3MDYxMzE3MjI1OVoXDTE4MDYx
MzE3MjI1OVowfDELMAkGA1UEBhMCRlIxFjAUBgNVBAgMDUlsZS1kZS1GcmFuY2Ux
DjAMBgNVBAcMBVBhcmlzMQ8wDQYDVQQKDAZJTlRFQ0gxDzANBgNVBAMMBnVidW50
dTEjMCEGCSqGSIb3DQEJARYUdWJ1bnR1QGNhbmJyZWFraXQuZnIwgZ8wDQYJKoZI
hvcNAQEBBQADgY0AMIGJAoGBAKVpVNHNN4+A5UXZD5gHT6tzrmFcYp4JHG9xl98z
ZqZxOVJ0HuE6t0OKw2bxj7lqtEk4VoWT06szlvlRsXN99YBt8sPzFW1pGxbyqBH4
BD4MWVxPgyKaPJKHQtcYo1D3DyqpJ8Q71uu7n9hgiDu2Jw4co2qGWo0NneUbD3/t
f9gdAgMBAAGjggGBMIIBfTAkBglghkgBhvhCAQ0EFxYVQ2VydGlmaWNhdCBDbGll
bnQgU1NMMB0GA1UdDgQWBBRFQKKf4QG5XAQtJEHB0pkZ0W/91DCBrQYDVR0jBIGl
MIGigBTeQMR62+WNoRhJfmQWnFGuBk0SlKGBhqSBgzCBgDELMAkGA1UEBhMCRlIx
FjAUBgNVBAgMDUlsZS1kZS1GcmFuY2UxDjAMBgNVBAcMBVBhcmlzMQ8wDQYDVQQK
DAZJTlRFQ0gxETAPBgNVBAMMCHJvb3RfY2JpMSUwIwYJKoZIhvcNAQkBFhZyb290
X2NiaUBjYW5icmVha2l0LmZyggEBMAkGA1UdEgQCMAAwOAYDVR0RAQH/BC4wLIEU
dWJ1bnR1QGNhbmJyZWFraXQuZnKBFHVidW50dUBjYW5icmVha2l0LmZyMAwGA1Ud
EwEB/wQCMAAwCwYDVR0PBAQDAgbAMBEGCWCGSAGG+EIBAQQEAwIHgDATBgNVHSUE
DDAKBggrBgEFBQcDAjANBgkqhkiG9w0BAQUFAAOCAQEAS3sCPOawHG9O7itO3zw7
6Wy2sft3Yfc+lBcqHUEBwjWN9ALavieLVZ+0N/ImYA+fCJOwXld3oh5HDg2+FDte
7LCFbPCcgAVHmhc3b6uARu+sp4ysXmSOxDKOUKVfJ8QGWjjyGStMAUpfSZRr0uAT
PV9zBHRwLGL1F9TeicxH/oe2sfJzBE9J/7kQnZIchnhu4XKMqUJm+M5y3x3kzoK4
0+BYmVUoDbX54Go37ZweU23InqeJQYpNVFSLvE+PiAxWvvfWa3AXkJsOPsReQGrp
jTpIlxlN5nAmNhGnB5WZGHYWzuW+M1hIqxS4G3djfXKuz3lCXDpR0v31I2T6p7hd
bA==
-----END CERTIFICATE-----
