Certificate:
    Data:
        Version: 3 (0x2)
        Serial Number: 10 (0xa)
    Signature Algorithm: sha1WithRSAEncryption
        Issuer: C=FR, ST=Ile-de-France, L=Paris, O=INTECH, CN=root_cbi/emailAddress=root_cbi@canbreakit.fr
        Validity
            Not Before: Jun 14 09:11:42 2017 GMT
            Not After : Jun 14 09:11:42 2018 GMT
        Subject: C=FR, ST=Ile-de-France, L=Paris, O=INTECH, CN=tltltl
        Subject Public Key Info:
            Public Key Algorithm: rsaEncryption
                Public-Key: (2048 bit)
                Modulus:
                    00:d2:30:82:b6:1d:2d:00:6b:e7:16:2a:71:c1:42:
                    49:27:65:99:29:90:f0:c8:02:08:f7:ff:8c:bb:83:
                    fe:43:cb:64:64:a7:1a:ca:6b:d2:a6:2b:bd:75:89:
                    cb:d9:0a:76:2e:3d:32:7a:a3:2f:ef:08:1a:ae:6e:
                    f1:fb:34:cc:a2:a3:ae:92:aa:f5:8d:fe:3f:2d:69:
                    0d:f7:01:a7:be:15:65:ad:36:7b:39:78:53:01:84:
                    e7:65:d0:f8:f6:b8:69:d8:cd:3c:c7:10:a8:cf:6a:
                    a1:b3:fd:7d:51:42:2a:cf:9d:f7:e6:9c:9d:ab:f2:
                    49:e3:dc:50:21:09:4c:b1:93:1f:c9:11:dc:6f:79:
                    c5:34:8c:b4:c1:aa:ef:1f:a0:35:4a:9a:bc:61:ef:
                    8f:8a:29:04:2c:fb:f9:5d:24:bf:ab:10:e4:83:30:
                    12:76:d0:53:9a:c2:0f:40:a3:cd:32:35:1f:3b:be:
                    7e:7d:f0:cd:e1:53:84:b0:0e:d9:ba:9b:33:5b:3c:
                    2b:93:09:28:76:9b:a2:7e:c8:92:f7:d1:0f:0d:70:
                    d4:b8:16:33:9a:e0:b8:1f:bf:3b:c0:5a:56:20:52:
                    d2:1d:ce:10:7c:0e:05:33:6f:6e:0d:75:46:11:54:
                    09:64:ea:f6:87:e0:d5:bc:54:2d:fd:3e:20:94:1d:
                    80:1d
                Exponent: 65537 (0x10001)
        X509v3 extensions:
            Netscape Comment: 
                CA Racine
            X509v3 Subject Key Identifier: 
                88:CD:15:F0:D0:8F:8F:51:B2:90:2E:66:DB:E3:1C:DB:5C:38:5D:D9
            X509v3 Authority Key Identifier: 
                keyid:8A:81:3D:30:22:93:E3:61:A1:44:BC:19:20:2E:F8:00:29:B5:11:3B
                DirName:/C=FR/ST=Ile-de-France/L=Paris/O=INTECH/CN=root_cbi/emailAddress=root_cbi@canbreakit.fr
                serial:DF:97:F0:62:66:C6:31:5E

            X509v3 Basic Constraints: critical
                CA:TRUE, pathlen:1
            X509v3 Key Usage: 
                Certificate Sign, CRL Sign
    Signature Algorithm: sha1WithRSAEncryption
         70:21:6a:66:8f:7c:07:ae:cc:b7:e1:f0:95:05:7d:83:c7:01:
         bd:23:0e:56:84:a9:3e:50:4e:56:e9:cb:b9:d1:58:55:fa:b6:
         9c:ea:29:de:f2:ef:09:3d:73:05:08:b6:0c:bd:a3:1a:74:ca:
         64:77:6c:14:85:df:c9:2d:2f:37:71:18:53:a2:4e:0b:ce:30:
         9a:13:09:7f:88:e9:5c:0c:05:2a:4b:ad:0f:bf:27:da:20:59:
         1a:0a:5c:10:71:5d:5e:a6:1c:f5:8c:d4:3c:97:8b:b3:77:5c:
         0d:0d:30:9c:d0:1e:ba:a6:73:af:39:00:10:5d:a2:ee:e8:91:
         8d:85:22:dc:d8:50:34:a3:16:5f:b2:c8:52:06:e1:53:59:01:
         c9:ca:8b:97:83:86:35:17:65:fc:b8:84:0e:cb:c0:f3:f9:84:
         d8:3d:32:3f:ae:ca:51:b6:fb:73:70:8d:d3:18:38:5b:f5:e9:
         01:88:3f:4d:34:e8:ab:fe:27:f5:c5:66:97:54:a1:18:a4:b4:
         5a:25:be:ae:54:68:e6:b7:e8:4b:a3:ae:62:1d:8f:24:a3:dc:
         f1:b5:52:36:16:18:1c:d3:17:8d:23:e8:80:ca:e2:ea:36:f1:
         fd:50:8a:96:0d:d1:d8:7f:58:bc:6e:df:a7:e2:f3:7c:4e:82:
         04:0c:fd:25
-----BEGIN CERTIFICATE-----
MIIEazCCA1OgAwIBAgIBCjANBgkqhkiG9w0BAQUFADCBgDELMAkGA1UEBhMCRlIx
FjAUBgNVBAgMDUlsZS1kZS1GcmFuY2UxDjAMBgNVBAcMBVBhcmlzMQ8wDQYDVQQK
DAZJTlRFQ0gxETAPBgNVBAMMCHJvb3RfY2JpMSUwIwYJKoZIhvcNAQkBFhZyb290
X2NiaUBjYW5icmVha2l0LmZyMB4XDTE3MDYxNDA5MTE0MloXDTE4MDYxNDA5MTE0
MlowVzELMAkGA1UEBhMCRlIxFjAUBgNVBAgMDUlsZS1kZS1GcmFuY2UxDjAMBgNV
BAcMBVBhcmlzMQ8wDQYDVQQKDAZJTlRFQ0gxDzANBgNVBAMMBnRsdGx0bDCCASIw
DQYJKoZIhvcNAQEBBQADggEPADCCAQoCggEBANIwgrYdLQBr5xYqccFCSSdlmSmQ
8MgCCPf/jLuD/kPLZGSnGspr0qYrvXWJy9kKdi49MnqjL+8IGq5u8fs0zKKjrpKq
9Y3+Py1pDfcBp74VZa02ezl4UwGE52XQ+Pa4adjNPMcQqM9qobP9fVFCKs+d9+ac
navySePcUCEJTLGTH8kR3G95xTSMtMGq7x+gNUqavGHvj4opBCz7+V0kv6sQ5IMw
EnbQU5rCD0CjzTI1Hzu+fn3wzeFThLAO2bqbM1s8K5MJKHabon7IkvfRDw1w1LgW
M5rguB+/O8BaViBS0h3OEHwOBTNvbg11RhFUCWTq9ofg1bxULf0+IJQdgB0CAwEA
AaOCARYwggESMBgGCWCGSAGG+EIBDQQLFglDQSBSYWNpbmUwHQYDVR0OBBYEFIjN
FfDQj49RspAuZtvjHNtcOF3ZMIG1BgNVHSMEga0wgaqAFIqBPTAik+NhoUS8GSAu
+AAptRE7oYGGpIGDMIGAMQswCQYDVQQGEwJGUjEWMBQGA1UECAwNSWxlLWRlLUZy
YW5jZTEOMAwGA1UEBwwFUGFyaXMxDzANBgNVBAoMBklOVEVDSDERMA8GA1UEAwwI
cm9vdF9jYmkxJTAjBgkqhkiG9w0BCQEWFnJvb3RfY2JpQGNhbmJyZWFraXQuZnKC
CQDfl/BiZsYxXjASBgNVHRMBAf8ECDAGAQH/AgEBMAsGA1UdDwQEAwIBBjANBgkq
hkiG9w0BAQUFAAOCAQEAcCFqZo98B67Mt+HwlQV9g8cBvSMOVoSpPlBOVunLudFY
Vfq2nOop3vLvCT1zBQi2DL2jGnTKZHdsFIXfyS0vN3EYU6JOC84wmhMJf4jpXAwF
KkutD78n2iBZGgpcEHFdXqYc9YzUPJeLs3dcDQ0wnNAeuqZzrzkAEF2i7uiRjYUi
3NhQNKMWX7LIUgbhU1kBycqLl4OGNRdl/LiEDsvA8/mE2D0yP67KUbb7c3CN0xg4
W/XpAYg/TTToq/4n9cVml1ShGKS0WiW+rlRo5rfoS6OuYh2PJKPc8bVSNhYYHNMX
jSPogMri6jbx/VCKlg3R2H9YvG7fp+LzfE6CBAz9JQ==
-----END CERTIFICATE-----
