Certificate:
    Data:
        Version: 3 (0x2)
        Serial Number: 3 (0x3)
    Signature Algorithm: sha1WithRSAEncryption
        Issuer: C=FR, ST=Ile-de-France, L=Paris, O=INTECH, CN=root_cbi/emailAddress=root_cbi@canbreakit.fr
        Validity
            Not Before: Jun 14 05:27:58 2017 GMT
            Not After : Jun 14 05:27:58 2018 GMT
        Subject: C=FR, ST=Ile-de-France, L=Paris, O=INTECH, CN=tata
        Subject Public Key Info:
            Public Key Algorithm: rsaEncryption
                Public-Key: (2048 bit)
                Modulus:
                    00:94:e3:90:56:42:b9:2d:6c:e0:28:76:1f:5b:57:
                    b6:37:56:b5:21:aa:54:cb:d5:2a:27:42:b9:0d:bb:
                    45:ae:37:83:b7:57:98:c9:1c:8e:92:6e:7f:2c:53:
                    d5:4a:c3:01:fa:8f:55:f0:6c:82:3d:55:b7:8f:62:
                    43:05:f3:29:2e:30:73:2c:5e:2b:ab:67:fc:e1:66:
                    1b:25:00:27:24:28:dd:e9:ba:62:5e:56:61:17:a3:
                    8c:67:ee:2c:26:85:26:6e:9b:5a:ae:56:de:9f:46:
                    0e:7a:af:7b:4d:d5:51:b2:39:bb:4c:5d:48:7d:f8:
                    a1:c5:6f:7b:3a:8c:0a:b7:8c:25:80:78:ad:71:bb:
                    e1:af:60:18:be:3a:27:7f:d7:1f:21:14:68:db:0a:
                    29:c1:fd:3b:3e:39:c2:ca:96:74:65:f9:41:3f:f1:
                    7c:05:0d:49:3e:03:a4:0e:78:af:0b:db:b3:f6:6e:
                    3c:c1:68:ea:b9:d3:15:6c:92:6a:74:98:7c:ce:68:
                    57:3b:fe:68:e2:6c:a7:3e:c5:19:12:2c:49:e4:97:
                    7d:1a:10:2a:e5:6e:66:d4:4c:7d:9d:1c:5c:3c:6a:
                    88:2b:8c:2e:6d:c2:50:28:47:2d:67:5e:83:72:dc:
                    46:a6:4a:ea:06:02:26:0a:f7:48:ea:a7:aa:2e:05:
                    3e:f7
                Exponent: 65537 (0x10001)
        X509v3 extensions:
            Netscape Comment: 
                CA Racine
            X509v3 Subject Key Identifier: 
                D6:72:55:1A:28:A5:07:8E:2A:81:76:C4:2E:3D:A4:29:B1:CD:5F:75
            X509v3 Authority Key Identifier: 
                keyid:8A:81:3D:30:22:93:E3:61:A1:44:BC:19:20:2E:F8:00:29:B5:11:3B
                DirName:/C=FR/ST=Ile-de-France/L=Paris/O=INTECH/CN=root_cbi/emailAddress=root_cbi@canbreakit.fr
                serial:DF:97:F0:62:66:C6:31:5E

            X509v3 Basic Constraints: critical
                CA:TRUE, pathlen:1
            X509v3 Key Usage: 
                Certificate Sign, CRL Sign
    Signature Algorithm: sha1WithRSAEncryption
         3e:59:4a:40:d4:d4:9d:5d:5d:29:53:09:90:a6:23:36:97:80:
         4e:0d:2d:d6:33:cd:5d:96:13:fd:59:b1:e8:d3:53:43:53:b1:
         23:ac:7f:02:12:e3:d6:73:ae:1a:42:6b:ec:99:63:8f:53:80:
         14:a6:ea:b6:d4:db:bf:0e:06:b5:f7:11:33:ca:70:da:a1:99:
         81:7d:c8:f6:94:e4:89:54:29:6b:20:9b:24:37:91:9e:cb:bc:
         e4:8a:95:0d:36:20:96:78:83:2d:d9:cd:20:49:42:54:c3:53:
         bf:fb:b1:e0:c4:e8:fd:3c:7e:61:a1:a4:79:5c:15:13:30:41:
         1a:7f:9a:ed:2c:9b:5b:8a:40:fb:0b:2f:4d:6a:98:a8:62:56:
         dd:82:26:95:9b:87:ba:ae:e3:49:a8:99:57:f9:7c:9b:dc:08:
         5f:cb:a1:ff:b3:7d:e4:d9:eb:3a:6b:28:5d:06:c3:87:0f:8b:
         74:5a:13:b9:e4:88:3a:ce:c7:0e:74:2b:cc:89:f5:60:3e:aa:
         8b:67:51:76:ca:79:a0:84:1a:d2:e2:a8:4a:3f:a9:96:9e:e7:
         26:52:a1:c8:f7:97:cb:7c:98:af:63:97:b9:9a:99:d7:41:80:
         02:f8:d3:40:dd:4b:22:91:0b:c6:5d:98:9b:c1:3d:8a:cc:90:
         ac:dd:84:90
-----BEGIN CERTIFICATE-----
MIIEaTCCA1GgAwIBAgIBAzANBgkqhkiG9w0BAQUFADCBgDELMAkGA1UEBhMCRlIx
FjAUBgNVBAgMDUlsZS1kZS1GcmFuY2UxDjAMBgNVBAcMBVBhcmlzMQ8wDQYDVQQK
DAZJTlRFQ0gxETAPBgNVBAMMCHJvb3RfY2JpMSUwIwYJKoZIhvcNAQkBFhZyb290
X2NiaUBjYW5icmVha2l0LmZyMB4XDTE3MDYxNDA1Mjc1OFoXDTE4MDYxNDA1Mjc1
OFowVTELMAkGA1UEBhMCRlIxFjAUBgNVBAgMDUlsZS1kZS1GcmFuY2UxDjAMBgNV
BAcMBVBhcmlzMQ8wDQYDVQQKDAZJTlRFQ0gxDTALBgNVBAMMBHRhdGEwggEiMA0G
CSqGSIb3DQEBAQUAA4IBDwAwggEKAoIBAQCU45BWQrktbOAodh9bV7Y3VrUhqlTL
1SonQrkNu0WuN4O3V5jJHI6Sbn8sU9VKwwH6j1XwbII9VbePYkMF8ykuMHMsXiur
Z/zhZhslACckKN3pumJeVmEXo4xn7iwmhSZum1quVt6fRg56r3tN1VGyObtMXUh9
+KHFb3s6jAq3jCWAeK1xu+GvYBi+Oid/1x8hFGjbCinB/Ts+OcLKlnRl+UE/8XwF
DUk+A6QOeK8L27P2bjzBaOq50xVskmp0mHzOaFc7/mjibKc+xRkSLEnkl30aECrl
bmbUTH2dHFw8aogrjC5twlAoRy1nXoNy3EamSuoGAiYK90jqp6ouBT73AgMBAAGj
ggEWMIIBEjAYBglghkgBhvhCAQ0ECxYJQ0EgUmFjaW5lMB0GA1UdDgQWBBTWclUa
KKUHjiqBdsQuPaQpsc1fdTCBtQYDVR0jBIGtMIGqgBSKgT0wIpPjYaFEvBkgLvgA
KbURO6GBhqSBgzCBgDELMAkGA1UEBhMCRlIxFjAUBgNVBAgMDUlsZS1kZS1GcmFu
Y2UxDjAMBgNVBAcMBVBhcmlzMQ8wDQYDVQQKDAZJTlRFQ0gxETAPBgNVBAMMCHJv
b3RfY2JpMSUwIwYJKoZIhvcNAQkBFhZyb290X2NiaUBjYW5icmVha2l0LmZyggkA
35fwYmbGMV4wEgYDVR0TAQH/BAgwBgEB/wIBATALBgNVHQ8EBAMCAQYwDQYJKoZI
hvcNAQEFBQADggEBAD5ZSkDU1J1dXSlTCZCmIzaXgE4NLdYzzV2WE/1ZsejTU0NT
sSOsfwIS49ZzrhpCa+yZY49TgBSm6rbU278OBrX3ETPKcNqhmYF9yPaU5IlUKWsg
myQ3kZ7LvOSKlQ02IJZ4gy3ZzSBJQlTDU7/7seDE6P08fmGhpHlcFRMwQRp/mu0s
m1uKQPsLL01qmKhiVt2CJpWbh7qu40momVf5fJvcCF/Lof+zfeTZ6zprKF0Gw4cP
i3RaE7nkiDrOxw50K8yJ9WA+qotnUXbKeaCEGtLiqEo/qZae5yZSocj3l8t8mK9j
l7mamddBgAL400DdSyKRC8ZdmJvBPYrMkKzdhJA=
-----END CERTIFICATE-----
