Certificate:
    Data:
        Version: 3 (0x2)
        Serial Number: 8 (0x8)
    Signature Algorithm: sha1WithRSAEncryption
        Issuer: C=FR, ST=Ile-de-France, L=Paris, O=INTECH, CN=root_cbi/emailAddress=root_cbi@canbreakit.fr
        Validity
            Not Before: Jun 14 07:45:51 2017 GMT
            Not After : Jun 14 07:45:51 2018 GMT
        Subject: C=FR, ST=Ile-de-France, L=Paris, O=INTECH, CN=tete
        Subject Public Key Info:
            Public Key Algorithm: rsaEncryption
                Public-Key: (2048 bit)
                Modulus:
                    00:a2:4c:18:cc:74:0b:46:db:39:c8:5b:e2:5a:63:
                    b5:9a:3f:69:86:cf:4a:ea:b9:56:e5:03:90:12:00:
                    8b:e3:45:32:27:25:4b:d2:3b:70:c1:20:72:c3:98:
                    6d:87:ab:b6:a7:11:04:d8:01:ea:46:a3:02:d1:b1:
                    cf:e3:e0:e7:da:1d:ed:d4:15:bc:7e:c7:89:0e:41:
                    b7:dc:60:ca:96:93:3c:91:e9:96:4e:91:d7:b6:b8:
                    91:ef:e1:3c:36:21:5a:2d:5a:99:f8:a2:4e:d0:ee:
                    91:ad:41:9f:53:3e:1b:4e:f3:90:85:78:b7:48:5e:
                    a2:b6:0b:88:36:d4:30:4c:d6:6d:d0:99:52:22:23:
                    ef:a9:b3:50:be:27:af:d7:d6:d6:e8:5e:97:87:95:
                    c4:96:6d:e7:15:48:ba:e3:ab:f0:d1:8a:3f:d3:27:
                    91:77:24:41:94:e8:c4:5e:5a:01:01:f6:9a:e4:3d:
                    87:34:c0:28:b3:9c:07:88:3e:85:1c:46:cf:51:be:
                    0f:41:38:60:f8:42:d9:d8:08:d2:3e:66:87:98:f5:
                    33:49:13:e4:b9:5e:01:ec:6c:21:1d:7d:d6:bf:48:
                    f1:da:b5:13:7a:16:06:93:74:48:f7:48:ba:66:83:
                    70:0c:b1:9c:21:0a:7b:f1:80:21:60:c4:b9:ac:f5:
                    a1:c7
                Exponent: 65537 (0x10001)
        X509v3 extensions:
            Netscape Comment: 
                CA Racine
            X509v3 Subject Key Identifier: 
                5C:AE:D7:FC:5E:CF:93:66:A4:91:1D:59:32:AA:B0:92:76:01:DB:F8
            X509v3 Authority Key Identifier: 
                keyid:8A:81:3D:30:22:93:E3:61:A1:44:BC:19:20:2E:F8:00:29:B5:11:3B
                DirName:/C=FR/ST=Ile-de-France/L=Paris/O=INTECH/CN=root_cbi/emailAddress=root_cbi@canbreakit.fr
                serial:DF:97:F0:62:66:C6:31:5E

            X509v3 Basic Constraints: critical
                CA:TRUE, pathlen:1
            X509v3 Key Usage: 
                Certificate Sign, CRL Sign
    Signature Algorithm: sha1WithRSAEncryption
         a4:78:bb:45:d8:50:3f:c2:2a:ca:fd:7b:29:bc:77:91:53:24:
         05:a3:57:bd:e4:b8:d0:b0:ba:1c:40:ee:4a:06:36:5a:8f:28:
         b2:76:fd:f8:ea:61:40:b5:78:28:6f:9e:db:a9:d0:bb:ad:88:
         21:cc:39:d0:7a:44:67:c4:ec:13:c5:36:28:1e:cd:9a:87:be:
         9e:17:70:5c:59:58:54:6c:5c:89:84:f3:cb:9e:43:af:2d:7b:
         b1:87:77:42:2c:ef:90:e3:cf:93:a5:d6:77:ba:8c:b2:b0:1b:
         12:97:3e:e1:7d:eb:c7:6e:e2:a5:52:b4:e9:85:20:53:27:7c:
         b0:8c:bb:21:70:b7:7c:92:ad:81:32:94:d2:44:82:5f:91:2b:
         a2:6b:5a:23:96:75:2a:b6:bf:08:6c:e6:f2:79:5c:32:d4:2d:
         5a:62:7a:c1:af:63:86:be:8b:51:4c:ea:ef:00:3b:77:8b:7a:
         03:2d:78:65:fc:c5:5e:34:d3:dc:9b:77:ce:64:6d:a7:75:24:
         6f:b8:9b:76:05:07:e7:3e:2b:cd:52:66:a9:b0:c0:5e:2f:3b:
         f7:9c:52:af:77:c5:2e:2d:be:4e:fb:0f:a6:c9:91:21:17:d5:
         bf:33:9f:8a:ca:15:21:e6:4e:7e:08:76:70:b8:a4:78:bd:1c:
         4e:66:f3:8d
-----BEGIN CERTIFICATE-----
MIIEaTCCA1GgAwIBAgIBCDANBgkqhkiG9w0BAQUFADCBgDELMAkGA1UEBhMCRlIx
FjAUBgNVBAgMDUlsZS1kZS1GcmFuY2UxDjAMBgNVBAcMBVBhcmlzMQ8wDQYDVQQK
DAZJTlRFQ0gxETAPBgNVBAMMCHJvb3RfY2JpMSUwIwYJKoZIhvcNAQkBFhZyb290
X2NiaUBjYW5icmVha2l0LmZyMB4XDTE3MDYxNDA3NDU1MVoXDTE4MDYxNDA3NDU1
MVowVTELMAkGA1UEBhMCRlIxFjAUBgNVBAgMDUlsZS1kZS1GcmFuY2UxDjAMBgNV
BAcMBVBhcmlzMQ8wDQYDVQQKDAZJTlRFQ0gxDTALBgNVBAMMBHRldGUwggEiMA0G
CSqGSIb3DQEBAQUAA4IBDwAwggEKAoIBAQCiTBjMdAtG2znIW+JaY7WaP2mGz0rq
uVblA5ASAIvjRTInJUvSO3DBIHLDmG2Hq7anEQTYAepGowLRsc/j4OfaHe3UFbx+
x4kOQbfcYMqWkzyR6ZZOkde2uJHv4Tw2IVotWpn4ok7Q7pGtQZ9TPhtO85CFeLdI
XqK2C4g21DBM1m3QmVIiI++ps1C+J6/X1tboXpeHlcSWbecVSLrjq/DRij/TJ5F3
JEGU6MReWgEB9prkPYc0wCiznAeIPoUcRs9Rvg9BOGD4QtnYCNI+ZoeY9TNJE+S5
XgHsbCEdfda/SPHatRN6FgaTdEj3SLpmg3AMsZwhCnvxgCFgxLms9aHHAgMBAAGj
ggEWMIIBEjAYBglghkgBhvhCAQ0ECxYJQ0EgUmFjaW5lMB0GA1UdDgQWBBRcrtf8
Xs+TZqSRHVkyqrCSdgHb+DCBtQYDVR0jBIGtMIGqgBSKgT0wIpPjYaFEvBkgLvgA
KbURO6GBhqSBgzCBgDELMAkGA1UEBhMCRlIxFjAUBgNVBAgMDUlsZS1kZS1GcmFu
Y2UxDjAMBgNVBAcMBVBhcmlzMQ8wDQYDVQQKDAZJTlRFQ0gxETAPBgNVBAMMCHJv
b3RfY2JpMSUwIwYJKoZIhvcNAQkBFhZyb290X2NiaUBjYW5icmVha2l0LmZyggkA
35fwYmbGMV4wEgYDVR0TAQH/BAgwBgEB/wIBATALBgNVHQ8EBAMCAQYwDQYJKoZI
hvcNAQEFBQADggEBAKR4u0XYUD/CKsr9eym8d5FTJAWjV73kuNCwuhxA7koGNlqP
KLJ2/fjqYUC1eChvntup0LutiCHMOdB6RGfE7BPFNigezZqHvp4XcFxZWFRsXImE
88ueQ68te7GHd0Is75Djz5Ol1ne6jLKwGxKXPuF968du4qVStOmFIFMnfLCMuyFw
t3ySrYEylNJEgl+RK6JrWiOWdSq2vwhs5vJ5XDLULVpiesGvY4a+i1FM6u8AO3eL
egMteGX8xV4009ybd85kbad1JG+4m3YFB+c+K81SZqmwwF4vO/ecUq93xS4tvk77
D6bJkSEX1b8zn4rKFSHmTn4IdnC4pHi9HE5m840=
-----END CERTIFICATE-----
