Certificate:
    Data:
        Version: 3 (0x2)
        Serial Number: 4 (0x4)
    Signature Algorithm: sha256WithRSAEncryption
        Issuer: C=FR, ST=Ile-de-France, L=Paris, O=INTECH, OU=S5, CN=Serveur/name=Serveur/emailAddress=pradelli@intechinfo.fr
        Validity
            Not Before: Jun 16 08:11:07 2017 GMT
            Not After : Jun 14 08:11:07 2027 GMT
        Subject: C=FR, ST=Ile-de-France, L=Paris, O=INTECH, OU=S5, CN=Serveur/name=EasyRSA/emailAddress=pradelli@intechinfo.fr
        Subject Public Key Info:
            Public Key Algorithm: rsaEncryption
                Public-Key: (2048 bit)
                Modulus:
                    00:c2:5c:a0:a9:7a:a1:f4:08:64:f2:a6:15:4c:86:
                    af:55:3a:74:e5:33:08:6c:1e:3a:b1:bc:d6:94:c3:
                    8c:4d:1d:c5:13:4c:6d:6c:0d:c9:23:a3:58:35:2a:
                    ea:55:16:26:49:57:04:f8:31:58:ce:ce:ff:96:8b:
                    46:c0:c5:1b:2b:63:49:11:11:a7:91:85:8c:33:fc:
                    2e:92:36:64:f6:d0:53:db:a4:f6:05:9b:9f:69:10:
                    b4:7d:85:85:53:ba:33:5e:a3:58:18:74:9f:3b:21:
                    87:4f:76:17:52:44:d2:e0:21:cd:d5:c0:75:c6:27:
                    a5:75:dc:88:f5:14:66:65:ea:d8:ad:4e:cb:e1:69:
                    84:1b:05:22:cc:b4:d8:74:ab:11:ea:21:83:07:5d:
                    27:f2:32:76:ad:cc:9e:50:ae:fa:9c:27:c4:4e:c4:
                    77:e7:f4:94:8f:27:99:23:75:50:8b:7b:8d:8d:37:
                    dd:e5:5b:68:6f:7f:97:0c:9a:32:63:cb:25:40:94:
                    51:65:d9:3c:eb:d9:ba:ad:12:d4:4c:36:d8:57:cb:
                    96:a4:10:83:0f:50:b5:99:de:1e:21:e2:7a:2a:57:
                    45:b1:b3:42:8b:f8:45:f9:5c:d2:b3:42:f4:00:92:
                    0a:10:31:cc:c7:67:23:2d:6c:cf:4d:73:a8:f2:af:
                    73:31
                Exponent: 65537 (0x10001)
        X509v3 extensions:
            X509v3 Basic Constraints: 
                CA:FALSE
            Netscape Cert Type: 
                SSL Server
            Netscape Comment: 
                Easy-RSA Generated Server Certificate
            X509v3 Subject Key Identifier: 
                ED:9E:B8:94:78:32:26:D3:4F:88:40:C3:40:6F:6A:42:3C:6B:34:60
            X509v3 Authority Key Identifier: 
                keyid:A1:0A:CA:D8:D1:7B:11:C3:C7:91:18:69:9E:68:80:36:96:C1:6A:3A
                DirName:/C=FR/ST=Ile-de-France/L=Paris/O=INTECH/OU=S5/CN=Serveur/name=Serveur/emailAddress=pradelli@intechinfo.fr
                serial:DE:A7:0A:21:46:83:3A:B1

            X509v3 Extended Key Usage: 
                TLS Web Server Authentication
            X509v3 Key Usage: 
                Digital Signature, Key Encipherment
            X509v3 Subject Alternative Name: 
                DNS:Serveur
    Signature Algorithm: sha256WithRSAEncryption
         b4:d7:28:b4:4b:cb:e3:b2:14:00:b6:e8:45:67:ea:34:e5:14:
         76:cf:84:04:c8:93:65:a0:b1:e5:5c:58:19:6a:ca:bb:b9:31:
         97:f9:db:3f:e3:68:cb:41:c0:74:89:cd:99:62:65:08:d2:41:
         fb:fb:e6:92:0a:df:68:d4:7d:a0:b0:bd:64:f4:ce:c1:b8:6b:
         5e:50:12:9f:a0:88:87:26:6f:bd:c1:31:51:52:c5:c5:27:e5:
         3a:30:5c:2d:82:48:dc:b2:06:49:2d:87:7f:52:10:19:62:05:
         bd:75:2d:3f:61:32:f4:61:b8:e7:6a:bf:71:8b:f0:b6:c4:0f:
         88:29:d8:c0:8b:7b:37:cb:ab:b4:70:7f:f2:3e:76:d5:18:54:
         89:7f:fd:02:12:59:3c:b6:71:1a:8f:9b:96:6e:3d:05:e9:f0:
         b7:47:9d:11:de:21:7c:75:71:14:cb:e9:47:d9:4d:7b:12:4f:
         48:f2:ce:4a:cf:72:21:59:bc:b9:87:71:a2:a8:6b:1c:4d:0d:
         f5:1d:06:e7:0d:e5:cc:21:75:82:48:e4:e4:48:33:35:c2:f0:
         29:f1:e2:61:22:2b:9f:ac:20:74:82:ed:34:e6:a8:18:ed:07:
         4d:d9:bc:07:a3:04:7a:e2:6c:f0:a7:08:e8:3f:fa:2b:71:8b:
         0a:61:8c:de
-----BEGIN CERTIFICATE-----
MIIFPjCCBCagAwIBAgIBBDANBgkqhkiG9w0BAQsFADCBnjELMAkGA1UEBhMCRlIx
FjAUBgNVBAgTDUlsZS1kZS1GcmFuY2UxDjAMBgNVBAcTBVBhcmlzMQ8wDQYDVQQK
EwZJTlRFQ0gxCzAJBgNVBAsTAlM1MRAwDgYDVQQDEwdTZXJ2ZXVyMRAwDgYDVQQp
EwdTZXJ2ZXVyMSUwIwYJKoZIhvcNAQkBFhZwcmFkZWxsaUBpbnRlY2hpbmZvLmZy
MB4XDTE3MDYxNjA4MTEwN1oXDTI3MDYxNDA4MTEwN1owgZ4xCzAJBgNVBAYTAkZS
MRYwFAYDVQQIEw1JbGUtZGUtRnJhbmNlMQ4wDAYDVQQHEwVQYXJpczEPMA0GA1UE
ChMGSU5URUNIMQswCQYDVQQLEwJTNTEQMA4GA1UEAxMHU2VydmV1cjEQMA4GA1UE
KRMHRWFzeVJTQTElMCMGCSqGSIb3DQEJARYWcHJhZGVsbGlAaW50ZWNoaW5mby5m
cjCCASIwDQYJKoZIhvcNAQEBBQADggEPADCCAQoCggEBAMJcoKl6ofQIZPKmFUyG
r1U6dOUzCGweOrG81pTDjE0dxRNMbWwNySOjWDUq6lUWJklXBPgxWM7O/5aLRsDF
GytjSRERp5GFjDP8LpI2ZPbQU9uk9gWbn2kQtH2FhVO6M16jWBh0nzshh092F1JE
0uAhzdXAdcYnpXXciPUUZmXq2K1Oy+FphBsFIsy02HSrEeohgwddJ/Iydq3MnlCu
+pwnxE7Ed+f0lI8nmSN1UIt7jY033eVbaG9/lwyaMmPLJUCUUWXZPOvZuq0S1Ew2
2FfLlqQQgw9QtZneHiHieipXRbGzQov4Rflc0rNC9ACSChAxzMdnIy1sz01zqPKv
czECAwEAAaOCAYMwggF/MAkGA1UdEwQCMAAwEQYJYIZIAYb4QgEBBAQDAgZAMDQG
CWCGSAGG+EIBDQQnFiVFYXN5LVJTQSBHZW5lcmF0ZWQgU2VydmVyIENlcnRpZmlj
YXRlMB0GA1UdDgQWBBTtnriUeDIm00+IQMNAb2pCPGs0YDCB0wYDVR0jBIHLMIHI
gBShCsrY0XsRw8eRGGmeaIA2lsFqOqGBpKSBoTCBnjELMAkGA1UEBhMCRlIxFjAU
BgNVBAgTDUlsZS1kZS1GcmFuY2UxDjAMBgNVBAcTBVBhcmlzMQ8wDQYDVQQKEwZJ
TlRFQ0gxCzAJBgNVBAsTAlM1MRAwDgYDVQQDEwdTZXJ2ZXVyMRAwDgYDVQQpEwdT
ZXJ2ZXVyMSUwIwYJKoZIhvcNAQkBFhZwcmFkZWxsaUBpbnRlY2hpbmZvLmZyggkA
3qcKIUaDOrEwEwYDVR0lBAwwCgYIKwYBBQUHAwEwCwYDVR0PBAQDAgWgMBIGA1Ud
EQQLMAmCB1NlcnZldXIwDQYJKoZIhvcNAQELBQADggEBALTXKLRLy+OyFAC26EVn
6jTlFHbPhATIk2WgseVcWBlqyru5MZf52z/jaMtBwHSJzZliZQjSQfv75pIK32jU
faCwvWT0zsG4a15QEp+giIcmb73BMVFSxcUn5TowXC2CSNyyBkkth39SEBliBb11
LT9hMvRhuOdqv3GL8LbED4gp2MCLezfLq7Rwf/I+dtUYVIl//QISWTy2cRqPm5Zu
PQXp8LdHnRHeIXx1cRTL6UfZTXsST0jyzkrPciFZvLmHcaKoaxxNDfUdBucN5cwh
dYJI5ORIMzXC8Cnx4mEiK5+sIHSC7TTmqBjtB03ZvAejBHribPCnCOg/+itxiwph
jN4=
-----END CERTIFICATE-----
