Certificate:
    Data:
        Version: 3 (0x2)
        Serial Number: 12 (0xc)
    Signature Algorithm: sha1WithRSAEncryption
        Issuer: C=FR, ST=Ile-de-France, L=Paris, O=INTECH, CN=root_cbi/emailAddress=root_cbi@canbreakit.fr
        Validity
            Not Before: Jun 14 13:05:28 2017 GMT
            Not After : Jun 14 13:05:28 2018 GMT
        Subject: C=FR, ST=Ile-de-France, L=Paris, O=INTECH, CN=tftf
        Subject Public Key Info:
            Public Key Algorithm: rsaEncryption
                Public-Key: (2048 bit)
                Modulus:
                    00:c0:80:a9:e7:7a:22:ba:52:3c:b5:4a:8c:30:d3:
                    ed:38:a9:3c:a6:e0:eb:7c:82:a7:8b:7b:35:26:68:
                    e4:4b:fb:36:c0:fa:19:10:39:44:fd:52:d9:14:de:
                    03:79:30:3f:86:c7:8a:77:67:96:9e:71:3b:c2:7a:
                    8b:fa:28:fd:31:69:8c:3e:c7:85:30:47:33:04:ad:
                    c2:f8:c1:ac:de:d4:4b:b1:ae:71:4d:e2:22:6d:0c:
                    1f:cf:d9:d7:68:c9:de:79:27:05:97:93:da:ab:47:
                    2f:87:d7:1b:c0:23:08:4c:8e:f8:ac:91:0d:34:89:
                    4f:ce:34:70:f8:a5:c3:67:ea:2d:b1:cb:5a:20:6b:
                    a8:37:f5:ac:75:dd:29:a7:5d:85:5e:a6:c4:28:4e:
                    9b:f7:cb:2b:9d:d8:05:be:55:83:f6:d9:27:a3:00:
                    0d:3d:d3:ca:8b:a3:be:9a:06:95:06:45:62:58:79:
                    91:b3:e1:af:21:16:fb:6d:7c:b4:f2:c2:c3:32:aa:
                    03:3c:4b:55:13:d6:fb:06:29:4c:f1:94:9f:a5:00:
                    8f:d5:31:2c:30:a5:62:cc:3d:47:df:1d:e3:b8:dd:
                    17:f5:8c:dd:3d:96:5c:91:b5:ba:94:96:97:dd:34:
                    51:66:63:f1:93:6e:97:20:65:9e:d2:b3:50:a7:ad:
                    2b:1d
                Exponent: 65537 (0x10001)
        X509v3 extensions:
            Netscape Comment: 
                CA Racine
            X509v3 Subject Key Identifier: 
                BA:B2:43:D2:6F:35:DE:61:47:61:11:4C:BC:9A:78:DB:4C:AD:08:B0
            X509v3 Authority Key Identifier: 
                keyid:8A:81:3D:30:22:93:E3:61:A1:44:BC:19:20:2E:F8:00:29:B5:11:3B
                DirName:/C=FR/ST=Ile-de-France/L=Paris/O=INTECH/CN=root_cbi/emailAddress=root_cbi@canbreakit.fr
                serial:DF:97:F0:62:66:C6:31:5E

            X509v3 Basic Constraints: critical
                CA:TRUE, pathlen:1
            X509v3 Key Usage: 
                Certificate Sign, CRL Sign
    Signature Algorithm: sha1WithRSAEncryption
         30:bc:f8:3a:30:93:47:fa:9b:a4:df:ea:c8:cf:4e:6e:a0:35:
         93:56:82:1c:65:ac:42:bf:27:af:0d:34:bf:f9:62:0a:18:87:
         a1:20:63:02:dd:b1:07:28:a6:d8:82:f1:a9:40:a9:e5:a4:f2:
         8a:02:e4:03:b1:5d:78:39:fa:68:c9:00:81:80:16:a4:10:1e:
         03:e5:86:2a:7a:c8:40:59:cf:28:08:69:2a:02:b7:39:d4:cf:
         e3:5c:ea:fe:7b:29:33:e5:c4:7c:c6:be:74:a8:59:d9:55:3c:
         75:7f:71:70:30:a8:43:ab:4e:f5:b3:5b:11:0e:b9:d2:55:a3:
         fe:f9:a3:a8:2e:c4:af:ad:e0:41:d6:65:cb:bb:77:69:6e:9c:
         ca:c8:68:c8:4c:8d:3e:3a:d6:8f:77:7d:18:5e:2b:1f:1a:34:
         62:c9:15:1f:b2:6f:8c:1a:59:bd:1a:c2:0c:cd:1c:44:6f:df:
         97:dc:74:64:f1:2a:cd:4e:92:a1:11:2c:be:b1:da:bb:19:fc:
         1a:c8:f8:ef:41:32:68:ed:74:49:87:60:94:1c:0b:8b:f6:98:
         ea:a2:04:dc:58:9a:bb:c4:2b:1f:30:27:75:80:a1:5f:63:cc:
         f1:ef:68:fc:9b:11:12:b0:1d:9b:f7:dd:37:53:88:95:5a:b2:
         0e:53:6a:9c
-----BEGIN CERTIFICATE-----
MIIEaTCCA1GgAwIBAgIBDDANBgkqhkiG9w0BAQUFADCBgDELMAkGA1UEBhMCRlIx
FjAUBgNVBAgMDUlsZS1kZS1GcmFuY2UxDjAMBgNVBAcMBVBhcmlzMQ8wDQYDVQQK
DAZJTlRFQ0gxETAPBgNVBAMMCHJvb3RfY2JpMSUwIwYJKoZIhvcNAQkBFhZyb290
X2NiaUBjYW5icmVha2l0LmZyMB4XDTE3MDYxNDEzMDUyOFoXDTE4MDYxNDEzMDUy
OFowVTELMAkGA1UEBhMCRlIxFjAUBgNVBAgMDUlsZS1kZS1GcmFuY2UxDjAMBgNV
BAcMBVBhcmlzMQ8wDQYDVQQKDAZJTlRFQ0gxDTALBgNVBAMMBHRmdGYwggEiMA0G
CSqGSIb3DQEBAQUAA4IBDwAwggEKAoIBAQDAgKnneiK6Ujy1Soww0+04qTym4Ot8
gqeLezUmaORL+zbA+hkQOUT9UtkU3gN5MD+Gx4p3Z5aecTvCeov6KP0xaYw+x4Uw
RzMErcL4waze1EuxrnFN4iJtDB/P2ddoyd55JwWXk9qrRy+H1xvAIwhMjviskQ00
iU/ONHD4pcNn6i2xy1oga6g39ax13SmnXYVepsQoTpv3yyud2AW+VYP22SejAA09
08qLo76aBpUGRWJYeZGz4a8hFvttfLTywsMyqgM8S1UT1vsGKUzxlJ+lAI/VMSww
pWLMPUffHeO43Rf1jN09llyRtbqUlpfdNFFmY/GTbpcgZZ7Ss1CnrSsdAgMBAAGj
ggEWMIIBEjAYBglghkgBhvhCAQ0ECxYJQ0EgUmFjaW5lMB0GA1UdDgQWBBS6skPS
bzXeYUdhEUy8mnjbTK0IsDCBtQYDVR0jBIGtMIGqgBSKgT0wIpPjYaFEvBkgLvgA
KbURO6GBhqSBgzCBgDELMAkGA1UEBhMCRlIxFjAUBgNVBAgMDUlsZS1kZS1GcmFu
Y2UxDjAMBgNVBAcMBVBhcmlzMQ8wDQYDVQQKDAZJTlRFQ0gxETAPBgNVBAMMCHJv
b3RfY2JpMSUwIwYJKoZIhvcNAQkBFhZyb290X2NiaUBjYW5icmVha2l0LmZyggkA
35fwYmbGMV4wEgYDVR0TAQH/BAgwBgEB/wIBATALBgNVHQ8EBAMCAQYwDQYJKoZI
hvcNAQEFBQADggEBADC8+Dowk0f6m6Tf6sjPTm6gNZNWghxlrEK/J68NNL/5YgoY
h6EgYwLdsQcoptiC8alAqeWk8ooC5AOxXXg5+mjJAIGAFqQQHgPlhip6yEBZzygI
aSoCtznUz+Nc6v57KTPlxHzGvnSoWdlVPHV/cXAwqEOrTvWzWxEOudJVo/75o6gu
xK+t4EHWZcu7d2lunMrIaMhMjT461o93fRheKx8aNGLJFR+yb4waWb0awgzNHERv
35fcdGTxKs1OkqERLL6x2rsZ/BrI+O9BMmjtdEmHYJQcC4v2mOqiBNxYmrvEKx8w
J3WAoV9jzPHvaPybERKwHZv33TdTiJVasg5Tapw=
-----END CERTIFICATE-----
